(lp0
F0.682433545589447
aF0.6776478290557861
aF0.6779595613479614
aF0.6779978275299072
aF0.6787654161453247
aF0.6725951433181763
aF0.6729823350906372
aF0.6701499819755554
aF0.6685166954994202
aF0.6646109819412231
aF0.6638458371162415
aF0.660804271697998
aF0.659932017326355
aF0.6564022898674011
aF0.6540879011154175
aF0.650641679763794
aF0.6489235758781433
aF0.6459178328514099
aF0.6429839730262756
aF0.6411811709403992
aF0.6384173631668091
aF0.6365016102790833
aF0.6351265907287598
aF0.633359968662262
aF0.6303538680076599
aF0.6275127530097961
aF0.6244898438453674
aF0.6220288276672363
aF0.619939923286438
aF0.6183131337165833
aF0.6150193214416504
aF0.6134253740310669
aF0.6112354397773743
aF0.608524739742279
aF0.604988157749176
aF0.6025169491767883
aF0.5999829173088074
aF0.5985293984413147
aF0.5977205634117126
aF0.595588207244873
aF0.594589114189148
aF0.5904857516288757
aF0.587579071521759
aF0.5856093764305115
aF0.5832070708274841
aF0.5822777152061462
aF0.5808509588241577
aF0.5784429311752319
aF0.5775883197784424
aF0.5759924650192261
aF0.5698522925376892
aF0.5684384107589722
aF0.5661337971687317
aF0.5668732523918152
aF0.563840389251709
aF0.5632728934288025
aF0.5616005659103394
aF0.5567864179611206
aF0.5542595982551575
aF0.5518571138381958
aF0.5494844913482666
aF0.5493022203445435
aF0.5495114326477051
aF0.54704749584198
aF0.5487554669380188
aF0.5434467196464539
aF0.5380968451499939
aF0.5368577241897583
aF0.5350378155708313
aF0.5336728096008301
aF0.5331480503082275
aF0.5321682095527649
aF0.5315859913825989
aF0.5288359522819519
aF0.5257766842842102
aF0.5244582295417786
aF0.5205703377723694
aF0.518656849861145
aF0.5178487300872803
aF0.5176446437835693
aF0.5159168243408203
aF0.5148054361343384
aF0.5126439929008484
aF0.5131606459617615
aF0.5070688128471375
aF0.5047852396965027
aF0.5044580698013306
aF0.5028671622276306
aF0.5009188055992126
aF0.5007097721099854
aF0.49911752343177795
aF0.49778473377227783
aF0.49550861120224
aF0.49406588077545166
aF0.49143409729003906
aF0.4888497591018677
aF0.48719608783721924
aF0.48675212264060974
aF0.48892852663993835
aF0.48520416021347046
aF0.4834619164466858
aF0.48120951652526855
aF0.4811401665210724
aF0.4797191619873047
aF0.4746879041194916
aF0.4769798517227173
aF0.4718643128871918
aF0.4737941026687622
aF0.4690217971801758
aF0.4709475338459015
aF0.4685041904449463
aF0.466461181640625
aF0.4654182195663452
aF0.4640323519706726
aF0.46217310428619385
aF0.4582744538784027
aF0.45773443579673767
aF0.45576801896095276
aF0.45531508326530457
aF0.4532354772090912
aF0.4539557695388794
aF0.45163577795028687
aF0.45174288749694824
aF0.4491081237792969
aF0.4490172863006592
aF0.4465341866016388
aF0.44445306062698364
aF0.4411991238594055
aF0.44043582677841187
aF0.4398632049560547
aF0.4393016993999481
aF0.43813806772232056
aF0.4363120496273041
aF0.4367085099220276
aF0.4336106479167938
aF0.4325704276561737
aF0.43037936091423035
aF0.42962774634361267
aF0.4283972978591919
aF0.42459890246391296
aF0.4255688190460205
aF0.42761871218681335
aF0.42117732763290405
aF0.4280124008655548
aF0.41984087228775024
aF0.41853955388069153
aF0.4188833236694336
aF0.4171483516693115
aF0.41533392667770386
aF0.4137010872364044
aF0.41162604093551636
aF0.41080302000045776
aF0.4174575209617615
aF0.40789732336997986
aF0.41376668214797974
aF0.40579554438591003
aF0.40368807315826416
aF0.40330588817596436
aF0.40255463123321533
aF0.401786744594574
aF0.3999374210834503
aF0.4032072126865387
aF0.4048442542552948
aF0.3957502245903015
aF0.3949272036552429
aF0.3940460681915283
aF0.39109623432159424
aF0.3892723619937897
aF0.38948413729667664
aF0.38702768087387085
aF0.3866906762123108
aF0.3853025734424591
aF0.3848148584365845
aF0.38352566957473755
aF0.38131681084632874
aF0.38073405623435974
aF0.38823401927948
aF0.37951144576072693
aF0.37787342071533203
aF0.3757464587688446
aF0.374408483505249
aF0.37118589878082275
aF0.37146610021591187
aF0.3694150149822235
aF0.3681471049785614
aF0.3651685416698456
aF0.3632005453109741
aF0.36121419072151184
aF0.36126214265823364
aF0.3518371284008026
aF0.3493897020816803
aF0.349242627620697
aF0.3339749872684479
aF0.3123304843902588
aF0.28685516119003296
aF0.28214123845100403
aF0.25648489594459534
aF0.21523627638816833
aF0.20670436322689056
aF0.2005910873413086
aF0.18183371424674988
aF0.14254243671894073
aF0.16095934808254242
aF0.33746182918548584
aF0.15424764156341553
aF0.24043576419353485
aF0.1787622720003128
aF0.15010692179203033
aF0.1279492974281311
aF0.15196968615055084
aF0.12052906304597855
aF0.13274447619915009
aF0.7191136479377747
aF0.5246480107307434
aF0.1027219220995903
aF0.08997934311628342
aF0.10638777166604996
aF0.05949706584215164
aF0.08924581110477448
aF0.1619776040315628
aF0.08205360919237137
aF0.21663719415664673
aF0.03824353590607643
aF0.02682090736925602
aF0.02336503379046917
aF0.16091099381446838
aF0.011827195063233376
aF0.07638829946517944
aF0.13106687366962433
aF0.021205684170126915
aF0.10328258574008942
aF0.008304102346301079
aF0.019065113738179207
aF0.005776755046099424
aF0.024944281205534935
aF0.004625203087925911
aF1.2164922952651978
aF0.06804666668176651
aF0.48997530341148376
aF0.002541441237553954
aF0.6022719144821167
aF0.22639566659927368
aF0.0010319100692868233
aF1.15665602684021
aF0.0012510546948760748
aF0.0014003979740664363
aF0.009406333789229393
aF1.0093632936477661
aF0.024427101016044617
aF0.02442130632698536
aF0.046404626220464706
aF0.008312903344631195
aF0.20983289182186127
aF1.119800090789795
aF0.13305316865444183
aF0.1318558007478714
aF0.0014835295733064413
aF2.4644453525543213
aF0.0443185418844223
aF0.016503630205988884
aF0.039524275809526443
aF0.05516828969120979
aF0.24956753849983215
aF0.02436087094247341
aF0.012816283851861954
aF0.0022309948690235615
aF0.03938334435224533
aF0.38550183176994324
aF0.0018704779213294387
aF0.07571511715650558
aF0.08975544571876526
aF0.1781196892261505
aF0.017423488199710846
aF0.0038504074327647686
aF0.0005383380339480937
aF0.12422562390565872
aF0.18925125896930695
aF0.011097260750830173
aF0.6027504205703735
aF0.040993884205818176
aF0.0005894433706998825
aF0.03723461553454399
aF0.0005801029037684202
aF0.04824576526880264
aF0.02247229963541031
aF0.14847251772880554
aF0.012235019356012344
aF0.0007367226644419134
aF0.024103693664073944
aF0.0003930749371647835
aF0.0359622985124588
aF0.3731050491333008
aF0.10730498284101486
aF0.7956017851829529
aF0.11459515988826752
aF0.048887450248003006
aF0.011331128887832165
aF1.4598311185836792
aF0.012778107076883316
aF0.5703078508377075
aF0.16713987290859222
aF0.038894299417734146
aF0.1550770103931427
aF0.0004586887953337282
aF0.114236019551754
aF0.4381449520587921
aF0.07433591037988663
aF0.0991663783788681
aF0.06808413565158844
aF0.016583213582634926
aF0.24414364993572235
aF0.030195359140634537
aF1.7939425706863403
aF0.8125372529029846
aF0.0022083509247750044
aF0.5479223728179932
aF0.0004042426880914718
aF0.014070335775613785
aF0.07897843420505524
aF0.02353491447865963
aF0.23266561329364777
aF1.4832615852355957
aF0.04102730005979538
aF0.0007781344465911388
aF0.0003898217692039907
aF0.000698432675562799
aF0.0032408996485173702
aF0.9422673583030701
aF0.07900641858577728
aF0.07546504586935043
aF0.0003089292149525136
aF0.23353606462478638
aF0.05702150613069534
aF0.27279478311538696
aF0.0999363362789154
aF0.40946346521377563
aF0.5036836266517639
aF0.007521363906562328
aF0.13436259329319
aF0.002017891500145197
aF0.5496671199798584
aF0.00575399911031127
aF0.5141645669937134
aF0.00046335416845977306
aF1.1359823942184448
aF0.011112349107861519
aF0.007316701579838991
aF0.2651841640472412
aF0.05596335232257843
aF0.004058229271322489
aF1.1485036611557007
aF0.00010655247751856223
aF0.02844930998980999
aF0.00039830856258049607
aF0.2700026035308838
aF0.1766730397939682
aF0.016132565215229988
aF0.3645302951335907
aF0.2342013567686081
aF0.01229912880808115
aF0.015751000493764877
aF0.6293862462043762
aF0.0005287718377076089
aF0.4063459634780884
aF0.04680662229657173
aF0.3951229453086853
aF0.024410875514149666
aF0.17270450294017792
aF0.057028982788324356
aF0.07771792262792587
aF0.08457883447408676
aF0.2152072638273239
aF0.000395144714275375
aF0.09167372435331345
aF0.0004546593700069934
aF0.0010961716761812568
aF0.09680280834436417
aF0.17440976202487946
aF0.5638401508331299
aF0.006009775213897228
aF0.03843306005001068
aF1.9649914503097534
aF0.00443901214748621
aF0.07475971430540085
aF0.0003657435590866953
aF0.2932296693325043
aF0.3386760354042053
aF0.010257776826620102
aF0.08246346563100815
aF0.02947113662958145
aF0.00010841060429811478
aF0.019267885014414787
aF0.6186057925224304
aF0.09872996062040329
aF0.21960878372192383
aF0.0003795568482019007
aF0.9251688718795776
aF0.3708384335041046
aF0.5026246309280396
aF0.007476719096302986
aF0.006086927372962236
aF0.09653343260288239
aF0.692399263381958
aF0.41682320833206177
aF0.01658601500093937
aF0.045033976435661316
aF1.7271677255630493
aF0.002474358305335045
aF0.05546586960554123
aF0.04197125509381294
aF0.03187553212046623
aF1.4735925197601318
aF0.05629890412092209
aF0.00031032972037792206
aF0.014141377061605453
aF0.00827035028487444
aF0.3159129321575165
aF0.012689902447164059
aF0.30667683482170105
aF0.07937055081129074
aF0.975545346736908
aF0.006867296062409878
aF0.0005304403603076935
aF0.0001891340798465535
aF0.8700159788131714
aF1.5617040395736694
aF0.06673543155193329
aF0.00019987976702395827
aF0.5169190764427185
aF0.703633725643158
aF0.12220929563045502
aF0.029627105221152306
aF0.00035166044835932553
aF9.56919975578785e-05
aF0.09667397290468216
aF0.04993772879242897
aF0.0028209190350025892
aF0.11174541711807251
aF0.007517739664763212
aF0.1329089254140854
aF8.318234904436395e-05
aF0.2773338556289673
aF1.2441308498382568
aF0.11524714529514313
aF0.03171752393245697
aF0.006004532799124718
aF0.0001600555842742324
aF1.163777470588684
aF0.017833363264799118
aF0.01068856194615364
aF0.16985207796096802
aF0.012544284574687481
aF0.0071827080100774765
aF0.05121585726737976
aF0.005970238707959652
aF0.009181124158203602
aF0.012103177607059479
aF0.19409722089767456
aF0.009673533961176872
aF0.00013242196291685104
aF0.0004167089064139873
aF0.03903420269489288
aF0.17521275579929352
aF0.012150557711720467
aF0.11030777543783188
aF0.028473153710365295
aF0.0022022344637662172
aF0.6087635159492493
aF0.002621216932311654
aF0.006732953246682882
aF0.09438635408878326
aF0.38969168066978455
aF0.6081710457801819
aF0.024636365473270416
aF0.00021019212726969272
aF0.030263908207416534
aF0.020808717235922813
aF0.00022460178297478706
aF0.22916334867477417
aF0.0487419031560421
aF0.37536484003067017
aF0.007322472054511309
aF0.008285089395940304
aF1.185774326324463
aF0.07501281797885895
aF0.529952347278595
aF0.005926331505179405
aF0.00023613158555235714
aF0.20437529683113098
aF0.04105868563055992
aF0.09444126486778259
aF0.15882271528244019
aF0.011316068470478058
aF0.0034409465733915567
aF0.3714757561683655
aF0.05729598551988602
aF0.3288179039955139
aF0.6804453730583191
aF0.7568408250808716
aF0.22924068570137024
aF0.036795176565647125
aF0.02600937895476818
aF0.00456604128703475
aF0.03230396285653114
aF0.04001343995332718
aF0.008528639562427998
aF0.029933087527751923
aF0.11902982741594315
aF0.07874113321304321
aF0.013800949789583683
aF0.08965383470058441
aF0.036752745509147644
aF0.01869155280292034
aF0.01080972421914339
aF0.7025321125984192
aF0.35191529989242554
aF0.0001792176772141829
aF0.01539385225623846
aF0.016499869525432587
aF0.13722701370716095
aF0.7794111967086792
aF0.6957228779792786
aF0.11174449324607849
aF0.0714973583817482
aF0.03766370192170143
aF0.01535617746412754
aF0.00011647598148556426
aF0.21321630477905273
aF0.033875882625579834
aF0.34553372859954834
aF0.00023235168191604316
aF0.02569461055099964
aF0.18554551899433136
aF1.2339071035385132
aF0.3695524334907532
aF0.11747714877128601
aF0.009603963233530521
aF0.6358605623245239
aF0.3883924186229706
aF0.0013976899208500981
aF0.03684473782777786
aF0.08846632391214371
aF0.00012649147538468242
aF0.001456750906072557
aF0.21365755796432495
aF0.09592185914516449
aF0.03205446898937225
aF0.9193295240402222
aF0.13553962111473083
aF0.06917304545640945
aF0.19286154210567474
aF0.3669123351573944
aF0.03767058998346329
aF0.13060618937015533
aF0.0073779551312327385
aF0.05556965619325638
aF0.1077541932463646
aF0.5317462086677551
aF0.06560739874839783
aF0.510212242603302
aF0.05398062989115715
aF0.6673570275306702
aF0.007687597535550594
aF0.07221226394176483
aF0.8125488758087158
aF0.2436932474374771
aF1.6088141202926636
aF7.94780717114918e-05
aF0.1606619507074356
aF0.00010000508336815983
aF0.055035024881362915
aF0.001113120000809431
aF0.08704380691051483
aF0.9727512001991272
aF0.020741255953907967
aF0.028626035898923874
aF0.0373670719563961
aF0.08624116331338882
aF0.09153737127780914
aF2.875230550765991
aF0.3375680148601532
aF0.019312668591737747
aF0.40723052620887756
aF0.08851386606693268
aF0.07193034887313843
aF0.001345466822385788
aF0.08188765496015549
aF0.1522277593612671
aF0.5221855044364929
aF0.0008921164553612471
aF0.07544837146997452
aF0.004734705667942762
aF0.3799137473106384
aF0.08010824769735336
aF0.17881236970424652
aF0.07064026594161987
aF0.021852947771549225
aF0.19270750880241394
aF0.40316978096961975
aF0.29674893617630005
aF0.012637563049793243
aF0.2009456604719162
aF0.435345858335495
aF0.004775459412485361
aF0.0606909841299057
aF0.00014178015408106148
aF0.002948533510789275
aF0.00011997350520687178
aF0.00011329868721077219
aF0.00013533918536268175
aF0.05502548813819885
aF0.5450594425201416
aF0.029656825587153435
aF0.020092101767659187
aF0.07145876437425613
aF0.02263580448925495
aF0.0018675207393243909
aF0.0022912856657058
aF0.22425086796283722
aF0.045244716107845306
aF0.09179501980543137
aF0.24405519664287567
aF0.007085833232849836
aF0.03267740085721016
aF8.991489448817447e-05
aF0.5368735194206238
aF1.1837807893753052
aF8.728167449589819e-05
aF0.054642386734485626
aF0.34243538975715637
aF0.00010136698256246746
aF0.6015964150428772
aF0.01165804173797369
aF0.04493672400712967
aF0.0063614812679588795
aF0.10057500004768372
aF0.1399306058883667
aF0.17349840700626373
aF0.4731464982032776
aF0.002063944935798645
aF0.16699868440628052
aF0.030747009441256523
aF0.5714237689971924
aF0.01298575010150671
aF0.005077386274933815
aF0.002850041026249528
aF0.11896143853664398
aF0.38129866123199463
aF0.061165764927864075
aF0.00015747264842502773
aF0.023869503289461136
aF0.0827384665608406
aF0.26661714911460876
aF0.004342976026237011
aF0.0023353274445980787
aF0.20638000965118408
aF0.1267082542181015
aF0.08755466341972351
aF0.03727104887366295
aF0.010896455496549606
aF0.21561333537101746
aF0.0851929560303688
aF0.005222604144364595
aF0.011094240471720695
aF0.0029182785656303167
aF0.20723876357078552
aF0.10565090924501419
aF0.07592348009347916
aF0.00020738110470119864
aF0.000177362744580023
aF0.001901178970001638
aF0.3708271086215973
aF0.005283256992697716
aF0.035584840923547745
aF0.10499869287014008
aF0.00015555311983916909
aF0.09115691483020782
aF0.05903010070323944
aF0.00011023244587704539
aF0.15661531686782837
aF0.027090061455965042
aF0.06104329228401184
aF0.00011447057477198541
aF1.2933491468429565
aF0.3094254732131958
aF0.288865864276886
aF0.00022895763686392456
aF0.04121091961860657
aF0.016843672841787338
aF0.030437367036938667
aF0.535246729850769
aF0.3154277503490448
aF0.03528764843940735
aF0.30050721764564514
aF0.15271741151809692
aF0.1065172478556633
aF1.0588358640670776
aF0.08655600249767303
aF0.09983367472887039
aF0.08856130391359329
aF0.23603616654872894
aF0.026518365368247032
aF0.0023358804173767567
aF0.27293485403060913
aF0.0007138205110095441
aF0.00016692728968337178
aF0.33304429054260254
aF0.026497669517993927
aF0.046460285782814026
aF0.12588873505592346
aF0.030093908309936523
aF0.0653683990240097
aF0.013445998542010784
aF0.025711335241794586
aF0.3142414689064026
aF0.3857901096343994
aF0.00048131062067113817
aF0.05744001269340515
aF0.021663663908839226
aF0.08879348635673523
aF0.0521283820271492
aF8.250385872088373e-05
aF0.0015685223042964935
aF0.49689456820487976
aF0.06426272541284561
aF0.3802415132522583
aF0.029440652579069138
aF0.06699135154485703
aF0.010907226242125034
aF0.03853873535990715
aF0.10835017263889313
aF0.048817411065101624
aF0.0022710231132805347
aF0.09523187577724457
aF0.02885853871703148
aF6.080344974179752e-05
aF0.00011183427704963833
aF0.00011284850188530982
aF0.04701841250061989
aF0.6764612793922424
aF1.21128249168396
aF0.02665136195719242
aF0.008716979064047337
aF0.8268108367919922
aF0.4019653797149658
aF8.088457252597436e-05
aF0.5248421430587769
aF0.2374154031276703
aF0.05615127831697464
aF0.05148356780409813
aF0.009670408442616463
aF0.09173676371574402
aF0.026240797713398933
aF0.11642823368310928
aF0.043212130665779114
aF0.3143405616283417
aF0.020808370783925056
aF1.1363143920898438
aF6.497019057860598e-05
aF0.21004866063594818
aF0.06458426266908646
aF0.3538759648799896
aF0.07603172212839127
aF0.06675109267234802
aF0.0121241994202137
aF0.11913804709911346
aF0.08475831151008606
aF0.1544649451971054
aF0.472456693649292
aF0.018041405826807022
aF0.011891157366335392
aF0.017474152147769928
aF0.00010290835052728653
aF0.23610107600688934
aF0.8684784770011902
aF2.008578300476074
aF0.10769438743591309
aF0.23202615976333618
aF0.0010286070173606277
aF0.00016288610640913248
aF7.802274194546044e-05
aF2.6462223104317673e-05
aF0.05402953922748566
aF0.05947607383131981
aF0.0717729851603508
aF0.0008541170973330736
aF0.12551403045654297
aF4.314044781494886e-05
aF0.001494576339609921
aF0.5479523539543152
aF0.0509042888879776
aF0.18858855962753296
aF0.026858491823077202
aF8.208252984331921e-05
aF0.32228848338127136
aF0.14565783739089966
aF0.4640156328678131
aF0.11833545565605164
aF0.027231184765696526
aF0.040836699306964874
aF0.07837118953466415
aF0.3868497908115387
aF0.001549859531223774
aF0.030041750520467758
aF0.04882853478193283
aF0.007660868111997843
aF0.13308493793010712
aF0.06317583471536636
aF0.21513700485229492
aF0.5881388187408447
aF0.10506623238325119
aF0.024433325976133347
aF0.026629451662302017
aF0.13890483975410461
aF0.4429651200771332
aF7.156217179726809e-05
aF0.827307403087616
aF6.85008562868461e-05
aF0.0003046263591386378
aF0.04282046854496002
aF0.007250899914652109
aF1.3159608840942383
aF0.15326298773288727
aF8.147759217536077e-05
aF0.02926119975745678
aF0.00010256484529236332
aF2.4506984118488617e-05
aF0.00010543211101321504
aF0.12212349474430084
aF0.04141005501151085
aF0.6011052131652832
aF2.547638416290283
aF0.16884052753448486
aF6.983623461565003e-05
aF2.2786130905151367
aF0.009484188631176949
aF0.09344544261693954
aF0.011048581451177597
aF0.04882489889860153
aF0.07595419883728027
aF0.0006613857112824917
aF0.005085819400846958
aF0.009865074418485165
aF0.03177011385560036
aF0.000453142449259758
aF0.425561785697937
aF0.14336998760700226
aF3.6126773920841515e-05
aF0.0032386307138949633
aF1.5893751382827759
aF0.00011395091860322282
aF0.05662956461310387
aF0.009057500399649143
aF0.203190878033638
aF0.06837447732686996
aF0.016100231558084488
aF0.011260519735515118
aF0.001508182380348444
aF0.02902570553123951
aF0.21082764863967896
aF0.012655098922550678
aF0.03145768865942955
aF0.14847856760025024
aF0.10894715040922165
aF0.2712889015674591
aF0.039809416979551315
aF8.803117816569284e-05
aF0.0779760330915451
aF0.19252173602581024
aF0.1682632714509964
aF0.32408204674720764
aF0.01807747595012188
aF0.005086102522909641
aF0.10012175142765045
aF0.015025168657302856
aF0.003869364270940423
aF0.006681940983980894
aF5.8354933571536094e-05
aF0.03458511456847191
aF0.017429007217288017
aF0.00485968915745616
aF0.130305677652359
aF0.023845015093684196
aF0.040191344916820526
aF0.004958438687026501
aF0.015523899346590042
aF0.38164380192756653
aF0.021818485110998154
aF0.6446784734725952
aF0.34225037693977356
aF0.2557453513145447
aF0.019278634339571
aF0.2652139663696289
aF0.27638086676597595
aF0.012675839476287365
aF5.2970466640545055e-05
aF0.0002875660720746964
aF0.1165313795208931
aF0.3457165062427521
aF0.004460013471543789
aF0.027606727555394173
aF0.039200812578201294
aF0.6303399205207825
aF0.04978242889046669
aF0.052579429000616074
aF0.260009229183197
aF0.005025028716772795
aF0.00443168543279171
aF0.06477160006761551
aF0.4450446665287018
aF0.005086032673716545
aF0.1936035007238388
aF0.26475611329078674
aF0.026529548689723015
aF1.0197408199310303
aF0.034818872809410095
aF5.65535192436073e-05
aF1.4195085896062665e-05
aF0.22503861784934998
aF4.770838131662458e-05
aF0.15687648952007294
aF0.06961744278669357
aF0.07667680084705353
aF0.052031394094228745
aF2.2034990787506104
aF0.31062787771224976
aF0.13244378566741943
aF0.03559776768088341
aF0.1712285280227661
aF0.1854647845029831
aF0.11383099108934402
aF0.08947852998971939
aF0.029609795659780502
aF0.05942400172352791
aF6.392084469553083e-05
aF0.0012615827145054936
aF0.06536906212568283
aF0.0026312300469726324
aF7.398407615255564e-05
aF0.10171785205602646
aF9.657319606048986e-05
aF4.7253022785298526e-05
aF0.24288341403007507
aF0.8760684728622437
aF7.151429599616677e-05
aF0.021428914740681648
aF0.08153866976499557
aF0.6091694235801697
aF0.11711219698190689
aF0.03562270849943161
aF0.2707981467247009
aF0.05350267142057419
aF0.10139200091362
aF0.07634007185697556
aF0.16548243165016174
aF0.45753034949302673
aF0.9992896318435669
aF0.6579035520553589
aF0.007431731093674898
aF0.006671819370239973
aF0.050599947571754456
aF0.706787109375
aF0.005459205247461796
aF0.3760070502758026
aF0.3510812520980835
aF0.15505315363407135
aF0.08092711865901947
aF0.00010934454621747136
aF0.004235943779349327
aF0.007478504907339811
aF0.010832037776708603
aF0.10891742259263992
aF0.09572416543960571
aF0.10888577252626419
aF1.382491111755371
aF0.03002357669174671
aF0.014047270640730858
aF0.22797121107578278
aF0.046018123626708984
aF0.022091126069426537
aF0.5388228893280029
aF0.3950127959251404
aF0.03576519340276718
aF0.0018388563767075539
aF3.7247431464493275e-05
aF0.6527668237686157
aF0.051767632365226746
aF3.265494524384849e-05
aF0.014272207394242287
aF0.8516592979431152
aF0.0028335305396467447
aF0.7172551155090332
aF0.3101511597633362
aF0.17936798930168152
aF0.028914859518408775
aF1.3725115060806274
aF7.980597001733258e-05
aF6.054765617591329e-05
aF0.09364098310470581
aF9.272784518543631e-05
aF0.08335237205028534
aF0.010240022093057632
aF0.05204658582806587
aF0.056003063917160034
aF0.01727222464978695
aF0.13949988782405853
aF0.26541364192962646
aF0.02221977524459362
aF0.16643545031547546
aF0.1461719274520874
aF1.0203050374984741
aF0.002636950695887208
aF0.3660065233707428
aF0.09597250074148178
aF0.05137846618890762
aF0.16347944736480713
aF0.15182673931121826
aF0.08595620840787888
aF0.005634331610053778
aF0.22179433703422546
aF0.0006340016843751073
aF0.08626032620668411
aF4.031462958664633e-05
aF7.003919745329767e-05
aF0.5797885060310364
aF0.00489012710750103
aF0.002448542043566704
aF0.3468608558177948
aF0.11245325207710266
aF0.16447383165359497
aF0.16492833197116852
aF0.033400759100914
aF0.0949338898062706
aF0.06396600604057312
aF0.06121360883116722
aF0.10097325593233109
aF0.0044364300556480885
aF0.20038697123527527
aF9.29380621528253e-05
aF0.39044249057769775
aF0.0007192808552645147
aF0.015787111595273018
aF0.05881432071328163
aF0.3562594950199127
aF0.0012537466827780008
aF0.18215280771255493
aF0.3666253685951233
aF0.48535484075546265
aF0.02920495718717575
aF0.003637430490925908
aF0.015034168027341366
aF0.014021402224898338
aF0.4014298617839813
aF7.810556417098269e-05
aF0.2395504266023636
aF0.31373196840286255
aF0.5519438982009888
aF0.041974231600761414
aF0.29437926411628723
aF0.10711397975683212
aF0.29322564601898193
aF0.0032610937487334013
aF0.012217532843351364
aF0.002465286524966359
aF0.19462484121322632
aF0.002923308638855815
aF0.032595690339803696
aF9.752792539075017e-05
aF0.00012053571117576212
aF0.031146787106990814
aF0.015439528040587902
aF0.09658718854188919
aF0.23678094148635864
aF0.1499493271112442
aF0.10033918917179108
aF0.02500387653708458
aF0.09563786536455154
aF0.13848847150802612
aF0.0014313110150396824
aF0.019421562552452087
aF0.5921404361724854
aF0.037883806973695755
aF0.08932514488697052
aF0.07303644716739655
aF0.019813230261206627
aF0.1714155226945877
aF0.327467143535614
aF0.029192987829446793
aF0.03020702302455902
aF0.02705666795372963
aF0.2223859429359436
aF0.01621861569583416
aF0.1937980353832245
aF0.011266710236668587
aF1.0492514371871948
aF0.12312474846839905
aF0.0008656121790409088
aF0.4224909245967865
aF0.01964092068374157
aF0.12073488533496857
aF0.023623159155249596
aF0.00031648899312131107
aF0.003907132428139448
aF0.00647316500544548
aF0.08496090769767761
aF0.0006621599895879626
aF0.004836265463382006
aF0.3150861859321594
aF0.021183641627430916
aF0.22195206582546234
aF0.1267339587211609
aF0.005698595196008682
aF0.025200005620718002
aF0.10395441204309464
aF0.09333833307027817
aF1.182721495628357
aF0.0008604266331531107
aF0.27973848581314087
aF0.0010823971824720502
aF0.0060872710309922695
aF0.02288961224257946
aF0.11628752946853638
aF0.013693229295313358
aF0.017432985827326775
aF0.00624924385920167
aF0.02321895770728588
aF0.011600326746702194
aF0.10328200459480286
aF0.0026232777163386345
aF0.0460205115377903
aF0.05641844496130943
aF0.002712082816287875
aF5.8484638429945335e-05
aF0.4876914620399475
aF0.004039027262479067
aF0.053378600627183914
aF0.007069998886436224
aF0.21041041612625122
aF0.03060532920062542
aF0.3054658770561218
aF5.8766727306647226e-05
aF9.365267032990232e-05
aF0.028320256620645523
aF0.058797478675842285
aF0.07624902576208115
aF0.02222331054508686
aF0.05397040769457817
aF0.12823177874088287
aF0.16686512529850006
aF0.041576847434043884
aF0.08293085545301437
aF0.0516728013753891
aF0.06443770974874496
aF0.027603568509221077
aF0.5907443165779114
aF0.00013406568905338645
aF0.09555894881486893
aF0.021646155044436455
aF1.1618883609771729
aF0.30241453647613525
aF1.1852861642837524
aF0.04039684310555458
aF0.06456725299358368
aF0.2195288985967636
aF0.059949297457933426
aF0.0024276007898151875
aF0.05336536839604378
aF0.0002408500440651551
aF0.07377367466688156
aF0.0024645060766488314
aF0.010410051792860031
aF3.669951547635719e-05
aF0.015407285653054714
aF0.0798158049583435
aF3.547159212757833e-05
aF0.018241332843899727
aF0.6455270051956177
aF4.076130426255986e-05
aF0.1694556027650833
aF0.09213460981845856
aF1.6257954835891724
aF0.06282883137464523
aF0.14508913457393646
aF0.015865150839090347
aF2.959076846309472e-05
aF0.21859528124332428
aF0.14207856357097626
aF0.434544175863266
aF0.10072266310453415
aF0.6780254244804382
aF0.025402316823601723
aF0.04359249398112297
aF0.2936311662197113
aF0.01523985993117094
aF0.0024591556284576654
aF0.0815245509147644
aF0.09497865289449692
aF0.02498832903802395
aF0.009181017987430096
aF0.1251087784767151
aF0.010623403824865818
aF0.06257358193397522
aF0.002447197213768959
aF0.14779634773731232
aF0.011858616024255753
aF8.3656377682928e-05
aF0.04258301109075546
aF0.19188015162944794
aF0.1314670741558075
aF0.2460128217935562
aF0.15296787023544312
aF0.051412470638751984
aF0.44877293705940247
aF0.709032416343689
aF7.47986268834211e-05
aF0.003239110577851534
aF0.12681497633457184
aF0.049028921872377396
aF0.093147411942482
aF0.6713147163391113
aF0.014039291068911552
aF0.05496257171034813
aF0.8664583563804626
aF0.07698694616556168
aF1.0186759233474731
aF0.41554170846939087
aF0.061002541333436966
aF0.022813616320490837
aF0.09731150418519974
aF0.7487850189208984
aF0.40736886858940125
aF0.12387079000473022
aF0.6113272309303284
aF1.488933801651001
aF0.0034747973550111055
aF0.07009684294462204
aF0.0463537722826004
aF0.20243175327777863
aF1.5476775169372559
aF1.0910321474075317
aF0.048486970365047455
aF0.9261853098869324
aF0.012230731546878815
aF0.0006422272999770939
aF0.027233166620135307
aF0.01919710263609886
aF0.32469478249549866
aF0.1581275314092636
aF1.0254042148590088
aF0.02681649662554264
aF0.0038454500027000904
aF1.6035178899765015
aF0.28434237837791443
aF0.3394862413406372
aF0.5116382241249084
aF0.006064943503588438
aF0.7926444411277771
aF0.06993135809898376
aF0.0020523543935269117
aF0.14327986538410187
aF0.003241167636588216
aF6.16389952483587e-05
aF0.4225482642650604
aF1.7259400920011103e-05
aF0.27368098497390747
aF0.16244983673095703
aF0.8312272429466248
aF2.1555752754211426
aF0.13108916580677032
aF0.11409030854701996
aF0.025156693533062935
aF0.007836045697331429
aF0.03640904277563095
aF0.0030143384356051683
aF0.17327681183815002
aF0.9208380579948425
aF0.6764348149299622
aF3.274905975558795e-05
aF0.010415595956146717
aF0.0020348059479147196
aF0.11150335520505905
aF0.20679493248462677
aF1.2443327903747559
aF0.06954227387905121
aF0.12327872961759567
aF0.07396718859672546
aF1.4142218828201294
aF0.007418173365294933
aF0.5598282217979431
aF1.535976529121399
aF0.24934221804141998
aF0.05895804986357689
aF0.02546660415828228
aF6.707278953399509e-05
aF0.007231369614601135
aF0.04659368097782135
aF0.20411856472492218
aF6.431723159039393e-05
aF0.015772590413689613
aF0.08929845690727234
aF0.02381056733429432
aF0.08193866163492203
aF0.30807992815971375
aF0.07195357978343964
aF0.03739728778600693
aF0.026016687974333763
aF0.06591913104057312
aF1.6839029788970947
aF3.896459747920744e-05
aF0.03178614377975464
aF0.7655853629112244
aF3.320879477541894e-05
aF0.0014293818967416883
aF0.035021860152482986
aF2.774889799184166e-05
aF0.030015695840120316
aF0.11431144177913666
aF0.04458837956190109
aF0.05620461329817772
aF0.004253021907061338
aF0.04658624529838562
aF0.00661988602951169
aF0.007020371034741402
aF0.1101226657629013
aF1.0408505201339722
aF0.005426838994026184
aF0.3843429684638977
aF1.0626310110092163
aF0.02224230021238327
aF0.004663780331611633
aF0.015021066181361675
aF0.19207343459129333
aF0.26772114634513855
aF0.03841039910912514
aF0.08873666077852249
aF0.04497656971216202
aF0.5839558839797974
aF0.48870161175727844
aF1.4326105117797852
aF0.051385290920734406
aF0.06594112515449524
aF0.8910207152366638
aF0.7304482460021973
aF0.06394224613904953
aF0.1948336362838745
aF1.0902345180511475
aF0.6832595467567444
aF4.9588245019549504e-05
aF0.1522931456565857
aF0.10451316833496094
aF0.04696353152394295
aF0.21525418758392334
aF0.1608990877866745
aF0.032441314309835434
aF0.017961284145712852
aF0.43131089210510254
aF4.005933442385867e-05
aF3.222036684746854e-05
aF0.05297389626502991
aF0.26158517599105835
aF0.0328102633357048
aF1.197691798210144
aF0.035586848855018616
aF0.0010395357385277748
aF0.027611063793301582
aF0.14046534895896912
aF0.8870617151260376
aF0.02598642371594906
aF0.0875893086194992
aF0.21692098677158356
aF1.0698070526123047
aF0.0068292878568172455
aF0.012608416378498077
aF0.0016438363818451762
aF0.2885405719280243
aF0.0012494460679590702
aF0.2217693030834198
aF0.2659592926502228
aF0.07813923805952072
aF0.04856998100876808
aF0.00024027979816310108
aF0.01447796355932951
aF0.3860090970993042
aF1.2120589017868042
aF0.23257410526275635
aF0.9911978840827942
aF0.517827033996582
aF0.00043868646025657654
aF4.109616929781623e-05
aF0.004414992872625589
aF0.0036763474345207214
aF6.235932960407808e-05
aF0.16903340816497803
aF0.5161088109016418
aF0.33220240473747253
aF0.5797279477119446
aF0.11365695297718048
aF0.02058631367981434
aF0.24143709242343903
aF7.23593111615628e-05
aF5.8067751524504274e-05
aF0.005626147147268057
aF0.05177010968327522
aF0.10415221005678177
aF0.08973488211631775
aF0.002060128143057227
aF1.3844153881072998
aF0.015390133485198021
aF0.03944780305027962
aF0.0038375628646463156
aF0.006422391626983881
aF2.3865330149419606e-05
aF0.04756663739681244
aF0.0447656586766243
aF0.00642241770401597
aF0.05996805056929588
aF0.14776873588562012
aF0.0791400894522667
aF4.256619286024943e-05
aF0.38838207721710205
aF3.2751457183621824e-05
aF0.07357180118560791
aF0.055714353919029236
aF5.775712998001836e-05
aF5.431414319900796e-05
aF0.040992673486471176
aF0.05155765265226364
aF0.011419503949582577
aF0.39857518672943115
aF0.07774610072374344
aF0.05162002891302109
aF1.0088958740234375
aF0.3551303446292877
aF1.0330575704574585
aF0.02461111731827259
aF0.31616154313087463
aF0.033999208360910416
aF0.12350436300039291
aF0.13365736603736877
aF0.4267273247241974
aF4.898125916952267e-05
aF0.39198893308639526
aF0.03639046847820282
aF0.020800350233912468
aF3.048312646569684e-05
aF0.4829992949962616
aF0.030007222667336464
aF0.29584944248199463
aF0.586774468421936
aF0.20852719247341156
aF0.10244651883840561
aF0.03598781302571297
aF0.0040407804772257805
aF0.1324944794178009
aF0.12149554491043091
aF0.026990430429577827
aF0.03055734932422638
aF0.34136635065078735
aF3.7247569707687944e-05
aF0.0503632128238678
aF0.03818603977560997
aF0.24135427176952362
aF0.002445181831717491
aF1.1646864414215088
aF1.03385329246521
aF0.02361016534268856
aF0.09870683401823044
aF0.004878699313849211
aF0.18606337904930115
aF0.011640788987278938
aF0.0317898653447628
aF0.15626028180122375
aF0.027831193059682846
aF0.040974583476781845
aF0.020615573972463608
aF0.09763453900814056
aF0.05911082401871681
aF0.18419307470321655
aF0.06878028064966202
aF0.14609204232692719
aF0.05257093906402588
aF1.448586106300354
aF0.016916446387767792
aF0.0020167315378785133
aF0.06386829912662506
aF2.8970742278033867e-05
aF0.0026758257299661636
aF0.0012247274862602353
aF0.0012225979007780552
aF0.01664097048342228
aF3.060980816371739e-05
aF0.1079103946685791
aF0.005204370710998774
aF0.11502362787723541
aF0.003656240878626704
aF0.20179034769535065
aF0.011409503407776356
aF0.13609182834625244
aF0.07591613382101059
aF0.01184214185923338
aF0.6696686744689941
aF0.006060643121600151
aF0.022802332416176796
aF0.16104604303836823
aF0.2697441577911377
aF0.05660542845726013
aF0.006633346434682608
aF0.14626356959342957
aF6.255445623537526e-05
aF0.08517724275588989
aF0.39875149726867676
aF0.0010198294185101986
aF0.008610247634351254
aF0.9783133864402771
aF0.10031134635210037
aF0.033998697996139526
aF0.7075127363204956
aF0.08621886372566223
aF0.3088758587837219
aF0.05196068435907364
aF0.022017251700162888
aF0.12467271834611893
aF0.06118292361497879
aF0.1678270697593689
aF0.16428253054618835
aF0.20558980107307434
aF0.12111154198646545
aF0.023996226489543915
aF0.04633411765098572
aF0.08153076469898224
aF0.05441071838140488
aF0.012829084880650043
aF0.05416877567768097
aF1.4134467840194702
aF1.806855320930481
aF4.296451879781671e-05
aF0.03318694233894348
aF0.045780282467603683
aF0.09966478496789932
aF0.05437501147389412
aF0.1049339696764946
aF0.013813323341310024
aF0.18981313705444336
aF0.21977528929710388
aF0.08244381099939346
aF3.458804712863639e-05
aF0.055364418774843216
aF0.07803363353013992
aF1.4935342073440552
aF0.24795109033584595
aF0.9669271111488342
aF0.1432608813047409
aF2.6442960006534122e-05
aF0.26869121193885803
aF0.21717587113380432
aF0.8358724117279053
aF0.5422129034996033
aF0.4894630014896393
aF2.956208845716901e-05
aF0.2652830481529236
aF2.7375304853194393e-05
aF0.9119894504547119
aF1.5241010189056396
aF4.6373992518056184e-05
aF0.46000850200653076
aF0.15144988894462585
aF4.215164153720252e-05
aF1.6767405271530151
aF0.5776892900466919
aF0.13266494870185852
aF5.277581658447161e-05
aF0.04657360538840294
aF0.24974162876605988
aF0.08534368872642517
aF0.017803676426410675
aF4.509893915383145e-05
aF0.12528680264949799
aF0.11152449250221252
aF0.01920136623084545
aF2.8555822372436523
aF0.02165740728378296
aF0.0010455668671056628
aF0.12090826034545898
aF0.011010014452040195
aF0.7757522463798523
aF0.026996858417987823
aF0.09532023966312408
aF0.38391196727752686
aF0.014610418118536472
aF0.7222148776054382
aF0.06076398864388466
aF1.8491464288672432e-05
aF0.02263670042157173
aF5.7854358601616696e-05
aF0.2991480231285095
aF3.200044739060104e-05
aF1.6003694327082485e-05
aF0.681644856929779
aF0.008423972874879837
aF0.023228583857417107
aF0.0958559662103653
aF0.09513229876756668
aF6.032310557202436e-05
aF0.0857304111123085
aF1.2729716300964355
aF0.08893287926912308
aF2.176981210708618
aF0.09716495126485825
aF0.019415108487010002
aF0.028589580208063126
aF0.003818952478468418
aF0.009236772544682026
aF0.005641873925924301
aF2.6640320356818847e-05
aF0.19338133931159973
aF0.1802302598953247
aF0.31874921917915344
aF0.033784154802560806
aF0.026217889040708542
aF1.7446285710320808e-05
aF1.97861827473389e-05
aF0.2054046392440796
aF0.0012240675278007984
aF0.07036782056093216
aF2.183983325958252
aF0.7827144265174866
aF2.6604438971844502e-05
aF0.4705055356025696
aF2.964091436297167e-05
aF1.7365042367600836e-05
aF0.07681969553232193
aF0.028190625831484795
aF0.2179751694202423
aF0.015228718519210815
aF0.11219724267721176
aF0.00044167006853967905
aF0.06393951177597046
aF0.016409531235694885
aF2.630866527557373
aF0.05894482508301735
aF0.06155358999967575
aF0.10428275167942047
aF0.27310317754745483
aF0.5518140196800232
aF0.007024287711828947
aF0.011221536435186863
aF0.08394516259431839
aF0.03958538547158241
aF0.006814651656895876
aF0.0042321570217609406
aF7.203538189060055e-06
a.