(lp0
F0.006355631165206432
aF0.011493401601910591
aF0.05875292047858238
aF0.0015892895171418786
aF0.003031764645129442
aF0.0010280522983521223
aF0.0037472215481102467
aF0.003180883591994643
aF0.0026861981023103
aF0.00278481631539762
aF0.003213220974430442
aF0.002573578618466854
aF0.011827618815004826
aF0.008094520308077335
aF0.0014007198624312878
aF0.0011294325813651085
aF0.01755097322165966
aF0.016636190935969353
aF0.029070977121591568
aF0.005367962643504143
aF0.043033454567193985
aF0.0017798739718273282
aF0.0009530381648801267
aF0.010092949494719505
aF0.0024695417378097773
aF0.0009611851419322193
aF0.0017048172885552049
aF0.0016238511307165027
aF0.0008017087820917368
aF0.0009122996707446873
aF0.0263350997120142
aF0.0016102527733892202
aF0.011236326768994331
aF0.006354146637022495
aF0.0008297125459648669
aF0.003584241960197687
aF0.026737473905086517
aF0.043516855686903
aF0.001877905335277319
aF0.007400515489280224
aF0.004136255942285061
aF0.004506879951804876
aF0.001979614607989788
aF0.004401909653097391
aF0.0018814223585650325
aF0.0804811343550682
aF0.033234529197216034
aF0.0018380740657448769
aF0.0023642596788704395
aF0.001963323215022683
aF0.009063214994966984
aF0.04898470267653465
aF0.03904292359948158
aF0.0019413224654272199
aF0.00358650553971529
aF0.004392013419419527
aF0.003868569154292345
aF0.0037679513916373253
aF0.003366053570061922
aF0.0034676913637667894
aF0.00444171903654933
aF0.0022930148988962173
aF0.001760695711709559
aF0.0140627920627594
aF0.002989291213452816
aF0.06238996982574463
aF0.0032714414410293102
aF0.002928897738456726
aF0.002845450071617961
aF0.024132274091243744
aF0.0029030535370111465
aF0.003007147228345275
aF0.0029195600654929876
aF0.0038949197623878717
aF0.0015170085243880749
aF0.012319440022110939
aF0.0017503277631476521
aF0.0012851536739617586
aF0.011806381866335869
aF0.0019910188857465982
aF0.0037136301398277283
aF0.008367132395505905
aF0.017710207030177116
aF0.0015210240380838513
aF0.0010756026022136211
aF0.0016984218964353204
aF0.1504576951265335
aF0.0017779559129849076
aF0.0008280567708425224
aF0.0021787937730550766
aF0.0017384168459102511
aF0.001559302443638444
aF0.002050933428108692
aF0.002072929171845317
aF0.007825483568012714
aF0.0015413741348311305
aF0.0019964699167758226
aF0.002190478378906846
aF0.0014086994342505932
aF0.002271742094308138
aF0.0016320323338732123
aF0.0037009308580309153
aF0.003604767145588994
aF0.0013974517351016402
aF0.002766834571957588
aF0.026281146332621574
aF0.05566151812672615
aF0.004059581086039543
aF0.006656568497419357
aF0.002023083157837391
aF0.018040426075458527
aF0.03279964253306389
aF0.15729835629463196
aF0.00376077345572412
aF0.010023367591202259
aF0.00908568874001503
aF0.003614707151427865
aF0.003952480386942625
aF0.007461139000952244
aF0.0044760857708752155
aF0.0049927388317883015
aF0.00473426841199398
aF0.004506364930421114
aF0.0042514861561357975
aF0.0030457470566034317
aF0.0038088466972112656
aF0.00155998847912997
aF0.0019585457630455494
aF0.007406034041196108
aF0.009873074479401112
aF0.002419430296868086
aF0.00413192342966795
aF0.0054754577577114105
aF0.002039238577708602
aF0.07775258272886276
aF0.003550679422914982
aF0.0017900457605719566
aF0.021124696359038353
aF0.012647444382309914
aF0.008275637403130531
aF0.00929015688598156
aF0.006135276984423399
aF0.0018612885614857078
aF0.00306681077927351
aF0.0015860574785619974
aF0.001902140909805894
aF0.0012679542414844036
aF0.0015125734498724341
aF0.001730760675854981
aF0.016559839248657227
aF0.30386883020401
aF0.03411943092942238
aF0.012653814628720284
aF0.002325752517208457
aF0.006989598274230957
aF0.004290013574063778
aF0.004503933247178793
aF0.005496658850461245
aF0.008365376852452755
aF0.002240857807919383
aF0.12981779873371124
aF0.0037508513778448105
aF0.007310499902814627
aF0.018259217962622643
aF0.012110876850783825
aF0.010862503200769424
aF0.012276065535843372
aF0.008945584297180176
aF0.005166726652532816
aF0.003887790720909834
aF0.0055327764712274075
aF0.014930535107851028
aF0.008959351107478142
aF0.0034396389964967966
aF0.009049450047314167
aF0.003212324343621731
aF0.01580308936536312
aF0.05136881023645401
aF0.03774372860789299
aF0.00362766208127141
aF0.0021709089633077383
aF0.0025958099868148565
aF0.006501202937215567
aF0.0018734101904556155
aF0.01794050633907318
aF0.0018079594010487199
aF0.050305113196372986
aF0.08311158418655396
aF0.003973723389208317
aF0.037774886935949326
aF0.001205344800837338
aF0.0028313230723142624
aF0.04819287359714508
aF0.001457652891986072
aF0.27876290678977966
aF0.07072558999061584
aF0.005547942593693733
aF0.030598970130085945
aF0.005551337264478207
aF0.011384572833776474
aF0.01759525202214718
aF0.00986751914024353
aF0.008965137414634228
aF0.005090794991701841
aF0.016802247613668442
aF0.01850530505180359
aF0.007610508240759373
aF0.021491751074790955
aF0.009064204059541225
aF0.01057673804461956
aF0.011061234399676323
aF0.008477128110826015
aF0.018251776695251465
aF0.007792129646986723
aF0.010191655717790127
aF0.0049570538103580475
aF0.006558814086019993
aF0.12412141263484955
aF0.018771564587950706
aF0.12743546068668365
aF0.005392873659729958
aF0.0030447226017713547
aF0.11433819681406021
aF0.009875099174678326
aF0.004936160985380411
aF0.008708766661584377
aF0.0353340320289135
aF0.009697314351797104
aF0.018425747752189636
aF0.021891577169299126
aF0.00597162451595068
aF0.005678766407072544
aF0.006463086232542992
aF0.08040309697389603
aF0.0038612615317106247
aF0.014575626701116562
aF0.013354978524148464
aF0.07236884534358978
aF0.0022510827984660864
aF0.012342371977865696
aF0.0057219089940190315
aF0.013759727589786053
aF0.02155209332704544
aF0.09589847922325134
aF0.0031034043058753014
aF0.011258895508944988
aF0.11026497930288315
aF0.004884038120508194
aF0.003266015090048313
aF0.004276212304830551
aF0.0048119728453457355
aF0.005922273267060518
aF0.009545765817165375
aF0.004005625378340483
aF0.025831731036305428
aF0.007080440875142813
aF0.004863652866333723
aF0.005040338728576899
aF0.009750456549227238
aF0.015554225072264671
aF0.004154685884714127
aF0.00983172096312046
aF0.004597273655235767
aF0.0063876318745315075
aF0.023386897519230843
aF0.0020748835522681475
aF0.0026453291065990925
aF0.0020890498999506235
aF0.004550305660814047
aF0.0020289230160415173
aF0.001754343626089394
aF0.20946232974529266
aF0.04201069846749306
aF0.033706773072481155
aF0.016881063580513
aF0.001763717969879508
aF0.01496050599962473
aF0.07661352306604385
aF0.004208936356008053
aF0.278586745262146
aF0.0067981514148414135
aF0.008581764996051788
aF0.06753074377775192
aF0.01596795581281185
aF0.011932401917874813
aF0.05982667952775955
aF0.016050046309828758
aF0.022900352254509926
aF0.009201942011713982
aF0.009812171570956707
aF0.01584508828818798
aF0.019579244777560234
aF0.04704398289322853
aF0.01887609250843525
aF0.011174960061907768
aF0.01010121125727892
aF0.046270206570625305
aF0.0411083959043026
aF0.041318442672491074
aF0.01720546931028366
aF0.018366029486060143
aF0.004922058898955584
aF0.006083988584578037
aF0.0044846003875136375
aF0.011189322918653488
aF0.003787676803767681
aF0.003270243527367711
aF0.0031039072200655937
aF0.002148757688701153
aF0.0016447134548798203
aF0.008081461302936077
aF0.011885046027600765
aF0.0021870234049856663
aF0.0017383081139996648
aF0.006805840879678726
aF0.0010181452380493283
aF0.02342768758535385
aF0.0006264421972446144
aF0.0023419733624905348
aF0.001250914647243917
aF0.004124181345105171
aF0.0008914154022932053
aF0.001037779962643981
aF0.004827203694730997
aF0.0037505601067095995
aF0.0004517098132055253
aF0.0002560392313171178
aF0.000996404211036861
aF0.0006867561605758965
aF0.011126680299639702
aF0.0062726340256631374
aF0.015085425227880478
aF0.001193258911371231
aF0.0004986251587979496
aF0.11502409726381302
aF0.0020817588083446026
aF0.0007164498092606664
aF0.01390869077295065
aF0.0008862309623509645
aF0.11033491045236588
aF0.011321024037897587
aF0.001997395884245634
aF0.004394568968564272
aF0.0012950805248692632
aF0.1007232666015625
aF0.0021402447018772364
aF0.003272509202361107
aF0.008813434280455112
aF0.009612219408154488
aF0.003373927902430296
aF0.0054602730087935925
aF0.022198369726538658
aF0.007488864473998547
aF0.003045010147616267
aF0.0030681085772812366
aF0.004865123890340328
aF0.004442823585122824
aF0.015292840078473091
aF0.004305909853428602
aF0.0025029752869158983
aF0.002786091296002269
aF0.008709573186933994
aF0.004599745851010084
aF0.006257203407585621
aF0.005192719865590334
aF0.03301359713077545
aF0.010444695129990578
aF0.0016546582337468863
aF0.023203929886221886
aF0.001625307835638523
aF0.006514757871627808
aF0.04607095196843147
aF0.023334240540862083
aF0.003993269056081772
aF0.024345936253666878
aF0.001784604974091053
aF0.00823602732270956
aF0.01125634741038084
aF0.01579190231859684
aF0.001314064720645547
aF0.004534503445029259
aF0.022231021896004677
aF0.08996114879846573
aF0.004216774366796017
aF0.0032164971344172955
aF0.0027092399541288614
aF0.001992997946217656
aF0.03893030434846878
aF0.0221065953373909
aF0.0018681430956348777
aF0.002964925952255726
aF0.002961628371849656
aF0.003059519687667489
aF0.005070098675787449
aF0.004256433341652155
aF0.005842918995767832
aF0.0021237654145807028
aF0.11071757227182388
aF0.04560499265789986
aF0.0028725103475153446
aF0.09666866809129715
aF0.003313907654955983
aF0.010410284623503685
aF0.0048568397760391235
aF0.005970409139990807
aF0.007983310148119926
aF0.007969032973051071
aF0.005842356942594051
aF0.005762030836194754
aF0.005465983413159847
aF0.007194962352514267
aF0.00740621006116271
aF0.012594490312039852
aF0.004636641126126051
aF0.003959577530622482
aF0.003158175852149725
aF0.022754942998290062
aF0.003091600723564625
aF0.01409511361271143
aF0.0031818558927625418
aF0.002725549042224884
aF0.00317014055326581
aF0.0022998126223683357
aF0.07892842590808868
aF0.0030521925073117018
aF0.004525634925812483
aF0.009593091905117035
aF0.0011708594392985106
aF0.04826631769537926
aF0.0026167009491473436
aF0.0016043587820604444
aF0.02829761989414692
aF0.0016697464743629098
aF0.009186799637973309
aF0.007799074985086918
aF0.0019537820480763912
aF0.02936962991952896
aF0.05637877807021141
aF0.06079411506652832
aF0.0016806863714009523
aF0.006835034117102623
aF0.0027174355927854776
aF0.018644653260707855
aF0.0338413342833519
aF0.06865257769823074
aF0.0035663407761603594
aF0.006590321660041809
aF0.021209992468357086
aF0.009831317700445652
aF0.013353832066059113
aF0.08898748457431793
aF0.004890462849289179
aF0.0026323767378926277
aF0.0034263303969055414
aF0.00644038338214159
aF0.004838087130337954
aF0.02058706060051918
aF0.005707520991563797
aF0.00823710672557354
aF0.0034305283334106207
aF0.005408372264355421
aF0.015233779326081276
aF0.06648804247379303
aF0.004611847456544638
aF0.11077423393726349
aF0.0035534934140741825
aF0.002533475635573268
aF0.004685471300035715
aF0.0032123199198395014
aF0.005307182669639587
aF0.004775958135724068
aF0.0020417291671037674
aF0.005127385724335909
aF0.015341897495090961
aF0.00645458186045289
aF0.00455395458266139
aF0.0019227699376642704
aF0.002154549118131399
aF0.004820963367819786
aF0.0017942078411579132
aF0.056248124688863754
aF0.032498154789209366
aF0.002235809341073036
aF0.011317751370370388
aF0.0012634635204449296
aF0.0014111062046140432
aF0.0019326434703543782
aF0.002257368993014097
aF0.0019283420406281948
aF0.00403671944513917
aF0.016836218535900116
aF0.0018549124943092465
aF0.015274596400558949
aF0.001626254408620298
aF0.007591145113110542
aF0.0014911184553056955
aF0.0017361489590257406
aF0.02083052136003971
aF0.0022339988499879837
aF0.0009095061104744673
aF0.013279597274959087
aF0.011990983970463276
aF0.001010553678497672
aF0.00131335505284369
aF0.0009274326730519533
aF0.0014125773450359702
aF0.016984812915325165
aF0.0031433540862053633
aF0.008503930643200874
aF0.0010050726123154163
aF0.0055275969207286835
aF0.011247420683503151
aF0.0012292483588680625
aF0.003839832032099366
aF0.002447189297527075
aF0.010841947980225086
aF0.0011255951831117272
aF0.0006614465964958072
aF0.0028090926352888346
aF0.004553677514195442
aF0.0013499422930181026
aF0.0023716529831290245
aF0.007969570346176624
aF0.003665650263428688
aF0.01002804096788168
aF0.0006124670617282391
aF0.0012402399443089962
aF0.0005977224209345877
aF0.0010966648114845157
aF0.06383273005485535
aF0.07238432765007019
aF0.1918720304965973
aF0.005635594483464956
aF0.0016232423949986696
aF0.007864177227020264
aF0.003790569258853793
aF0.004366520792245865
aF0.013838617131114006
aF0.017543870955705643
aF0.003415808081626892
aF0.0030550446826964617
aF0.00313737359829247
aF0.19546495378017426
aF0.07250457257032394
aF0.008234638720750809
aF0.008093450218439102
aF0.00791007000952959
aF0.007700658868998289
aF0.012336915358901024
aF0.004296585451811552
aF0.01172600593417883
aF0.007994087412953377
aF0.03893794119358063
aF0.016344359144568443
aF0.007800450548529625
aF0.040164969861507416
aF0.009454779326915741
aF0.03624929487705231
aF0.006001510191708803
aF0.008179005235433578
aF0.004798166919499636
aF0.12516698241233826
aF0.005585723556578159
aF0.009726573713123798
aF0.006530927959829569
aF0.005292915739119053
aF0.004579212050884962
aF0.003855663351714611
aF0.0033572125248610973
aF0.004752010572701693
aF0.09263988584280014
aF0.014374869875609875
aF0.0022002512123435736
aF0.011283558793365955
aF0.007908576168119907
aF0.006597394589334726
aF0.0062570106238126755
aF0.0056443121284246445
aF0.004188378341495991
aF0.003271769965067506
aF0.002050702925771475
aF0.0015576937003061175
aF0.002898364095017314
aF0.016424747183918953
aF0.03645625710487366
aF0.0016422844491899014
aF0.0021316746715456247
aF0.0013063614023849368
aF0.02543499320745468
aF0.18651466071605682
aF0.013107621110975742
aF0.0011942980345338583
aF0.0027418232057243586
aF0.02824421040713787
aF0.002010651398450136
aF0.0026864816900342703
aF0.0056690131314098835
aF0.009095217101275921
aF0.006868559867143631
aF0.004920151550322771
aF0.03622559830546379
aF0.0035814533475786448
aF0.0033633315470069647
aF0.0018400095868855715
aF0.005768307950347662
aF0.0024362606927752495
aF0.004172309767454863
aF0.002713252557441592
aF0.0040724310092628
aF0.0022769852075725794
aF0.029048815369606018
aF0.04795372113585472
aF0.002428881824016571
aF0.0021337762009352446
aF0.0031907593365758657
aF0.0034161999356001616
aF0.014368043281137943
aF0.002062821062281728
aF0.0020755277946591377
aF0.002038393635302782
aF0.004763894714415073
aF0.013282876461744308
aF0.0019456460140645504
aF0.0014376172330230474
aF0.0010646828450262547
aF0.007423250935971737
aF0.005292083602398634
aF0.0035901088267564774
aF0.0014392988523468375
aF0.0013928231783211231
aF0.0011547781759873033
aF0.0008569807978346944
aF0.0036898073740303516
aF0.029000749811530113
aF0.0005039562238380313
aF0.001232027425430715
aF0.002138221636414528
aF0.0024435827508568764
aF0.0008591008372604847
aF0.0016086919931694865
aF0.02168821543455124
aF0.04142625257372856
aF0.013971637934446335
aF0.0038264195900410414
aF0.0020967733580619097
aF0.0018633435247465968
aF0.01634869910776615
aF0.0036497933324426413
aF0.0010693505173549056
aF0.0008509387844242156
aF0.0004564042028505355
aF0.004123940598219633
aF0.0014349691336974502
aF0.0008166009210981429
aF0.0006397320539690554
aF0.024436166509985924
aF0.004186599049717188
aF0.0018868157640099525
aF0.0007466378738172352
aF0.005769711919128895
aF0.006628540810197592
aF0.003019484458491206
aF0.08218295127153397
aF0.015019138343632221
aF0.0027549806982278824
aF0.005713429301977158
aF0.001453152857720852
aF0.0016362435417249799
aF0.0020966639276593924
aF0.0022462618071585894
aF0.04136455059051514
aF0.02558073028922081
aF0.002531677484512329
aF0.024798206984996796
aF0.002178990049287677
aF0.0020164025481790304
aF0.0032142538111656904
aF0.0017123152501881123
aF0.0031359645072370768
aF0.0019405713537707925
aF0.0014782741200178862
aF0.0026337027084082365
aF0.042171910405159
aF0.00507027143612504
aF0.01369782630354166
aF0.019470714032649994
aF0.0012070261873304844
aF0.008634330704808235
aF0.0036154643166810274
aF0.00792931392788887
aF0.0034306528978049755
aF0.12059454619884491
aF0.06463420391082764
aF0.027673862874507904
aF0.01645176112651825
aF0.002475407673045993
aF0.001923251780681312
aF0.003565260674804449
aF0.003741973079741001
aF0.004716561175882816
aF0.002310215262696147
aF0.0036462959833443165
aF0.0045837764628231525
aF0.003448296571150422
aF0.009693201631307602
aF0.009041216224431992
aF0.004142090678215027
aF0.0015237912302836776
aF0.14976292848587036
aF0.0034247247967869043
aF0.01518659945577383
aF0.006051165517419577
aF0.015762997791171074
aF0.039242297410964966
aF0.004016540944576263
aF0.006658627651631832
aF0.03306703642010689
aF0.006376426666975021
aF0.0033093972597271204
aF0.010566329583525658
aF0.0039181155152618885
aF0.00446629524230957
aF0.0028572678565979004
aF0.10276177525520325
aF0.002133694477379322
aF0.0031405750196427107
aF0.0013355317059904337
aF0.003257574513554573
aF0.0035570652689784765
aF0.0028498873580247164
aF0.008509517647325993
aF0.0032856324687600136
aF0.024734409525990486
aF0.006328029092401266
aF0.005031371954828501
aF0.003002703655511141
aF0.011373535729944706
aF0.0019674079958349466
aF0.0248267762362957
aF0.015010487288236618
aF0.0026484918780624866
aF0.0018498222343623638
aF0.07729441672563553
aF0.016757678240537643
aF0.008999370038509369
aF0.0016587999416515231
aF0.010346166789531708
aF0.0024896932300180197
aF0.0009671517764218152
aF0.008679023943841457
aF0.0014044488780200481
aF0.0035670483484864235
aF0.005672862753272057
aF0.0017269597155973315
aF0.0014558484544977546
aF0.024779343977570534
aF0.002416695933789015
aF0.002747130114585161
aF0.0018963366746902466
aF0.05072670429944992
aF0.001115499995648861
aF0.0011808739509433508
aF0.0013390746898949146
aF0.0024171238765120506
aF0.002001483691856265
aF0.08074143528938293
aF0.002022735308855772
aF0.001206667860969901
aF0.0011067802552133799
aF0.0016829746309667826
aF0.009317510761320591
aF0.0012081603053957224
aF0.08787427097558975
aF0.0020185085013508797
aF0.0037908931262791157
aF0.0028819965664297342
aF0.0025486198719590902
aF0.00225114356726408
aF0.0038486241828650236
aF0.004972917027771473
aF0.0018243211088702083
aF0.014526973478496075
aF0.012692112475633621
aF0.024166597053408623
aF0.006950548384338617
aF0.042786888778209686
aF0.002141615143045783
aF0.002205949742347002
aF0.0025045122019946575
aF0.0015971943503245711
aF0.005547916516661644
aF0.00160610256716609
aF0.0211830735206604
aF0.001875977497547865
aF0.0024557309225201607
aF0.0020493033807724714
aF0.0043115695007145405
aF0.001067212549969554
aF0.0034722653217613697
aF0.0055732401087880135
aF0.0031744972802698612
aF0.0008988526533357799
aF0.0031565199606120586
aF0.00771526712924242
aF0.006401461083441973
aF0.032304514199495316
aF0.0008998573757708073
aF0.001612327410839498
aF0.006792726460844278
aF0.0018726637354120612
aF0.10312582552433014
aF0.0014089843025431037
aF0.0012855568202212453
aF0.010719064623117447
aF0.002248493954539299
aF0.011191662400960922
aF0.2006581574678421
aF0.06032105162739754
aF0.00196229200810194
aF0.006962001323699951
aF0.0031358804553747177
aF0.0041521405801177025
aF0.006424108054488897
aF0.00497514707967639
aF0.006118726916611195
aF0.003674526000395417
aF0.006525092292577028
aF0.005989616271108389
aF0.004759836010634899
aF0.0030861941631883383
aF0.00811877939850092
aF0.033223025500774384
aF0.007295242045074701
aF0.003936262801289558
aF0.07442278414964676
aF0.009643949568271637
aF0.0046106004156172276
aF0.00304141896776855
aF0.005659834016114473
aF0.005571333691477776
aF0.004633383825421333
aF0.0036689722910523415
aF0.002332652686163783
aF0.0023176101967692375
aF0.070589080452919
aF0.004903766326606274
aF0.0022923885844647884
aF0.0028274967335164547
aF0.002082493621855974
aF0.0015091635286808014
aF0.0027248843107372522
aF0.015587427653372288
aF0.0044583408161997795
aF0.0012282413663342595
aF0.0020310210529714823
aF0.0018391453195363283
aF0.22444836795330048
aF0.0960327759385109
aF0.0028526538517326117
aF0.011641038581728935
aF0.018342379480600357
aF0.0035921952221542597
aF0.004704486578702927
aF0.006899109110236168
aF0.07262878865003586
aF0.007534465752542019
aF0.006907891482114792
aF0.00872202217578888
aF0.02073070965707302
aF0.0026868183631449938
aF0.009195619262754917
aF0.004046269226819277
aF0.00754883885383606
aF0.006780740339308977
aF0.004190246108919382
aF0.0030136676505208015
aF0.00935365166515112
aF0.004256398417055607
aF0.0027795566711574793
aF0.01143956184387207
aF0.0032284294720739126
aF0.09864302724599838
aF0.013184804469347
aF0.06382735818624496
aF0.0031749906484037638
aF0.012342270463705063
aF0.0028498321771621704
aF0.04977846518158913
aF0.06207166612148285
aF0.003278945107012987
aF0.002583612920716405
aF0.0017786341486498713
aF0.0029569666367024183
aF0.007138598710298538
aF0.005133641883730888
aF0.0022423435002565384
aF0.0023156525567173958
aF0.003185229143127799
aF0.02761961705982685
aF0.011850989423692226
aF0.018528232350945473
aF0.0013534261379390955
aF0.0026283732149749994
aF0.004026645794510841
aF0.05176987126469612
aF0.0077268220484256744
aF0.003454134799540043
aF0.0055657560005784035
aF0.01284610666334629
aF0.004292316734790802
aF0.002863154746592045
aF0.003219441743567586
aF0.0038576156366616488
aF0.055070120841264725
aF0.001647471683099866
aF0.0014183239545673132
aF0.00334443268366158
aF0.19050592184066772
aF0.002194721717387438
aF0.002520955167710781
aF0.1309959590435028
aF0.01915632374584675
aF0.005711511708796024
aF0.006623429246246815
aF0.011158003471791744
aF0.005104444455355406
aF0.010193736292421818
aF0.010281701572239399
aF0.0043487767688930035
aF0.0073521859012544155
aF0.005840175319463015
aF0.0048810988664627075
aF0.003358711488544941
aF0.01397608406841755
aF0.00373190944083035
aF0.007072599604725838
aF0.004916864447295666
aF0.010244662873446941
aF0.004847771022468805
aF0.012820778414607048
aF0.004206684418022633
aF0.002639728831127286
aF0.004652073606848717
aF0.015620779246091843
aF0.0392441526055336
aF0.0021393506322056055
aF0.01798110269010067
aF0.0016279305564239621
aF0.02026010863482952
aF0.0012826973106712103
aF0.03603972867131233
aF0.0030113239772617817
aF0.0023527403827756643
aF0.002698753261938691
aF0.007513304706662893
aF0.04311457648873329
aF0.0016153714386746287
aF0.0027708085253834724
aF0.02291937917470932
aF0.001908317906782031
aF0.002171038184314966
aF0.0053629488684237
aF0.03832562267780304
aF0.012596183456480503
aF0.0018588227685540915
aF0.008962161839008331
aF0.0014817893970757723
aF0.013920527882874012
aF0.0025120775680989027
aF0.0013963335659354925
aF0.016259774565696716
aF0.00129194266628474
aF0.0015497665153816342
aF0.001582249067723751
aF0.012029856443405151
aF0.019675424322485924
aF0.0016006751684471965
aF0.0013138038339093328
aF0.0025833204854279757
aF0.007024057675153017
aF0.09698337316513062
aF0.001978885382413864
aF0.0007047544349916279
aF0.007945283316075802
aF0.003544798120856285
aF0.0018138029845431447
aF0.14130420982837677
aF0.0019059577025473118
aF0.0055588772520422935
aF0.0042280107736587524
aF0.0030169200617820024
aF0.001960323890671134
aF0.0018867115722969174
aF0.0033447619061917067
aF0.003948934376239777
aF0.001988736679777503
aF0.004273482598364353
aF0.009122587740421295
aF0.008197025395929813
aF0.21786151826381683
aF0.012051497586071491
aF0.010456242598593235
aF0.006178888957947493
aF0.015186954289674759
aF0.007210096810013056
aF0.004764242097735405
aF0.00496160751208663
aF0.012107472866773605
aF0.004918720107525587
aF0.00960355345159769
aF0.004619313403964043
aF0.004586213734000921
aF0.1588357836008072
aF0.023878121748566628
aF0.008103555999696255
aF0.008377395570278168
aF0.003425534116104245
aF0.025297226384282112
aF0.004259893670678139
aF0.0045012799091637135
aF0.005113763734698296
aF0.004371353890746832
aF0.004762384109199047
aF0.005040113348513842
aF0.006448947358876467
aF0.003727392293512821
aF0.0026409607380628586
aF0.0025487630628049374
aF0.0073751118034124374
aF0.006397739052772522
aF0.013460539281368256
aF0.018046822398900986
aF0.0022008027881383896
aF0.022243652492761612
aF0.005559890531003475
aF0.0021272781305015087
aF0.12061666697263718
aF0.0009347349405288696
aF0.030509602278470993
aF0.018017558380961418
aF0.002164034638553858
aF0.02113274298608303
aF0.014811062254011631
aF0.0018572323024272919
aF0.015348874032497406
aF0.0018037155969068408
aF0.0025056565646082163
aF0.00313009275123477
aF0.14010651409626007
aF0.006141109392046928
aF0.015120959840714931
aF0.002552641788497567
aF0.016394836828112602
aF0.005953260697424412
aF0.018596293404698372
aF0.003986145835369825
aF0.0025462599005550146
aF0.02708273008465767
aF0.008855796419084072
aF0.10296172648668289
aF0.0040774112567305565
aF0.004690608475357294
aF0.012853528372943401
aF0.00510944239795208
aF0.0026436105836182833
aF0.004443364683538675
aF0.004418756812810898
aF0.04589558392763138
aF0.004939981270581484
aF0.008248171769082546
aF0.003899256931617856
aF0.00333545939065516
aF0.003229123307392001
aF0.0032558110542595387
aF0.02783076837658882
aF0.016369516029953957
aF0.004366489127278328
aF0.0019101747311651707
aF0.004353553056716919
aF0.03698085993528366
aF0.0022915953304618597
aF0.007845471613109112
aF0.013964273035526276
aF0.0014600023860111833
aF0.12714774906635284
aF0.01302348356693983
aF0.014329432509839535
aF0.006047024857252836
aF0.004848767537623644
aF0.007890792563557625
aF0.021040530875325203
aF0.05300746113061905
aF0.013822734355926514
aF0.003280400298535824
aF0.002936340868473053
aF0.0020591302309185266
aF0.009202394634485245
aF0.0019503009971231222
aF0.0038094911724328995
aF0.013067223131656647
aF0.003359165508300066
aF0.0016786418855190277
aF0.002977353287860751
aF0.0031728665344417095
aF0.0031660106033086777
aF0.0042370036244392395
aF0.013937295414507389
aF0.009046276099979877
aF0.0018891730578616261
aF0.0025027324445545673
aF0.17923755943775177
aF0.0209665410220623
aF0.003210505936294794
aF0.007482695858925581
aF0.0035139473620802164
aF0.018967177718877792
aF0.004452548921108246
aF0.003482615575194359
aF0.08244684338569641
aF0.025301428511738777
aF0.005270859692245722
aF0.014006700366735458
aF0.06453733891248703
aF0.036803990602493286
aF0.008452639915049076
aF0.01564645953476429
aF0.010334023274481297
aF0.20332710444927216
aF0.004707657732069492
aF0.005485848523676395
aF0.0059555452316999435
aF0.005207952111959457
aF0.01958482339978218
aF0.005301197525113821
aF0.005978291854262352
aF0.00995055865496397
aF0.007423391565680504
aF0.008198476396501064
aF0.003932336810976267
aF0.007110882550477982
aF0.02860001102089882
aF0.007294246461242437
aF0.005560488440096378
aF0.004312639590352774
aF0.019197653979063034
aF0.02457350306212902
aF0.0029175516683608294
aF0.005064818542450666
aF0.0013244589790701866
aF0.0023820162750780582
aF0.008392350748181343
aF0.00292949378490448
aF0.0017731654224917293
aF0.003446590853855014
aF0.0028713378123939037
aF0.013137309812009335
aF0.0009297620272263885
aF0.0017103436402976513
aF0.014919335953891277
aF0.05683281272649765
aF0.0008482596604153514
aF0.0016233640490099788
aF0.0029130091425031424
aF0.0075276074931025505
aF0.014731081202626228
aF0.000923908781260252
aF0.1453188955783844
aF0.005647328682243824
aF0.006450769025832415
aF0.0015733897453173995
aF0.0014371788129210472
aF0.00318817887455225
aF0.0027065128087997437
aF0.011527391150593758
aF0.002176445908844471
aF0.003142214845865965
aF0.005000444129109383
aF0.04683469235897064
aF0.003689429722726345
aF0.013630460016429424
aF0.015576758421957493
aF0.04753202944993973
aF0.0027576785068958998
aF0.004503724630922079
aF0.0030332012102007866
aF0.002738213399425149
aF0.0032214014790952206
aF0.004294934682548046
aF0.015197566710412502
aF0.005506000015884638
aF0.006813097279518843
aF0.004012122284621
aF0.06871450692415237
aF0.0047187707386910915
aF0.0014321620110422373
aF0.01773682050406933
aF0.005023568402975798
aF0.0028352064546197653
aF0.014646188355982304
aF0.0032820345368236303
aF0.0022205475252121687
aF0.003988076467067003
aF0.002299817046150565
aF0.01776079647243023
aF0.008745956234633923
aF0.005304118152707815
aF0.0021820126567035913
aF0.062173500657081604
aF0.002260226523503661
aF0.0069090016186237335
aF0.004515537992119789
aF0.044971875846385956
aF0.001780752558261156
aF0.004305094480514526
aF0.03549624979496002
aF0.0014547918690368533
aF0.1748398393392563
aF0.0034766974858939648
aF0.00435302872210741
aF0.0032552985940128565
aF0.005279361270368099
aF0.006688346620649099
aF0.025535276159644127
aF0.016480425372719765
aF0.008855407126247883
aF0.004453244153410196
aF0.00409381277859211
aF0.005315938498824835
aF0.03915909305214882
aF0.0037551193963736296
aF0.0045006368309259415
aF0.004398911260068417
aF0.002662842394784093
aF0.003695861902087927
aF0.052254579961299896
aF0.005304696969687939
aF0.002851450117304921
aF0.0025251340121030807
aF0.0026740834582597017
aF0.05992230772972107
aF0.002951340051367879
aF0.007392446976155043
aF0.02755041979253292
aF0.002510006772354245
aF0.01071036234498024
aF0.002789649646729231
aF0.0035029887221753597
aF0.022744491696357727
aF0.009624514728784561
aF0.008006887510418892
aF0.0016244351863861084
aF0.0030614356510341167
aF0.0027325868140906096
aF0.0017234169645234942
aF0.00959310308098793
aF0.002906461013481021
aF0.0013504034141078591
aF0.003088771365582943
aF0.001775729120709002
aF0.006386440247297287
aF0.001516073476523161
aF0.0021711895242333412
aF0.0013159126974642277
aF0.005754486192017794
aF0.0015138918533921242
aF0.046592649072408676
aF0.0017765422817319632
aF0.0023529911413788795
aF0.012002820149064064
aF0.001213258015923202
aF0.012064927257597446
aF0.0034259927924722433
aF0.0011008878936991096
aF0.007958777248859406
aF0.0014020252274349332
aF0.004308641888201237
aF0.0009277263307012618
aF0.04302079603075981
aF0.0034910966642200947
aF0.0018694930477067828
aF0.04515009745955467
aF0.0018333151238039136
aF0.004139507655054331
aF0.0007411296828649938
aF0.04229442775249481
aF0.042783431708812714
aF0.001020028255879879
aF0.002460069954395294
aF0.12462042272090912
aF0.0016478011384606361
aF0.001577342045493424
aF0.0035889162681996822
aF0.0018150671385228634
aF0.002228450495749712
aF0.0025803586468100548
aF0.0031288061290979385
aF0.003114372491836548
aF0.002423918340355158
aF0.0027032634243369102
aF0.0029319957830011845
aF0.0024768321309238672
aF0.002180477837100625
aF0.0030919164419174194
aF0.12671491503715515
aF0.002949322806671262
aF0.018964817747473717
aF0.003694190178066492
aF0.04588555544614792
aF0.003001895034685731
aF0.037385087460279465
aF0.0031357279513031244
aF0.004733571782708168
aF0.003115988802164793
aF0.014522664248943329
aF0.0016062003560364246
aF0.013498262502253056
aF0.0036540618166327477
aF0.0035501178354024887
aF0.023730579763650894
aF0.039638716727495193
aF0.05580064281821251
aF0.0890505313873291
aF0.03639591112732887
aF0.011549926362931728
aF0.009715436957776546
aF0.0019791608210653067
aF0.004721623845398426
aF0.002850180258974433
aF0.02716701291501522
aF0.002929131733253598
aF0.0035007919650524855
aF0.00486801378428936
aF0.007716664578765631
aF0.0038964988198131323
aF0.018082404509186745
aF0.008001566864550114
aF0.003942106384783983
aF0.0043022665195167065
aF0.0025415101554244757
aF0.011388508602976799
aF0.01464053988456726
aF0.021440371870994568
aF0.0017807988915592432
aF0.0021803041454404593
aF0.004072878509759903
aF0.02626640349626541
aF0.015606353990733624
aF0.14578396081924438
aF0.001705730683170259
aF0.002502783900126815
aF0.00283560692332685
aF0.0020622340962290764
aF0.15043960511684418
aF0.006371974945068359
aF0.012440267950296402
aF0.01128818467259407
aF0.004093952476978302
aF0.012203299440443516
aF0.0027776702772825956
aF0.008968845009803772
aF0.03624647110700607
aF0.010722877457737923
aF0.010341488756239414
aF0.00374746136367321
aF0.006394175812602043
aF0.0035215073730796576
aF0.004183048382401466
aF0.014719691127538681
aF0.0037985669914633036
aF0.0036699252668768167
aF0.05094842240214348
aF0.004489559214562178
aF0.02221001498401165
aF0.0026021164376288652
aF0.002604202600196004
aF0.003919560927897692
aF0.06434284895658493
aF0.0028766507748514414
aF0.0026377784088253975
aF0.00378836109302938
aF0.0008923998684622347
aF0.0018870980711653829
aF0.06201387196779251
aF0.0352269746363163
aF0.0025435080751776695
aF0.008996107615530491
aF0.002090094843879342
aF0.002038674196228385
aF0.18916694819927216
aF0.0779399424791336
aF0.004898121114820242
aF0.00421712314710021
aF0.002839136403053999
aF0.009649135172367096
aF0.006947969552129507
aF0.008534686639904976
aF0.025630054995417595
aF0.009311688132584095
aF0.0052926382049918175
aF0.010182416997849941
aF0.004313049837946892
aF0.0050909253768622875
aF0.005646987818181515
aF0.02914825826883316
aF0.005745050497353077
aF0.005559843499213457
aF0.005390959791839123
aF0.006173139903694391
aF0.0042401510290801525
aF0.004692260641604662
aF0.001721317763440311
aF0.006485917139798403
aF0.0038256580010056496
aF0.004839272238314152
aF0.008373819291591644
aF0.014139830134809017
aF0.0030165999196469784
aF0.008224695920944214
aF0.03063287027180195
aF0.0012683937093243003
aF0.0029302691109478474
aF0.001178271253593266
aF0.010540526360273361
aF0.0019248172175139189
aF0.02677207440137863
aF0.01498793438076973
aF0.0010649964679032564
aF0.004327624570578337
aF0.0008330579730682075
aF0.010895832441747189
aF0.05448572710156441
aF0.001675345003604889
aF0.0006665552500635386
aF0.0009988220408558846
aF0.00108241883572191
aF0.004471896216273308
aF0.0007835798896849155
aF0.004348859190940857
aF0.001536950352601707
aF0.01105480082333088
aF0.009677272289991379
aF0.0010481453500688076
aF0.0008655483834445477
aF0.004000327084213495
aF0.0012762064579874277
aF0.0012287271674722433
aF0.04837985336780548
aF0.01469409465789795
aF0.0009427869226783514
aF0.0012721351813524961
aF0.0036617631558328867
aF0.00047360279131680727
aF0.0007303417660295963
aF0.056630730628967285
aF0.008021950721740723
aF0.000813252932857722
aF0.007914156652987003
aF0.01389275398105383
aF0.028436968103051186
aF0.00461159273982048
aF0.006867453455924988
aF0.3180669844150543
aF0.0113153588026762
aF0.0032821993809193373
aF0.0034893525298684835
aF0.006356266792863607
aF0.005901090335100889
aF0.004659445025026798
aF0.007609140127897263
aF0.004967576824128628
aF0.041993338614702225
aF0.007193512283265591
aF0.00987881887704134
aF0.007607568055391312
aF0.011842364445328712
aF0.005781275685876608
aF0.008238013833761215
aF0.006962955463677645
aF0.07514537870883942
aF0.01813502423465252
aF0.015470326878130436
aF0.004266635049134493
aF0.0035793695133179426
aF0.043938715010881424
aF0.015774130821228027
aF0.007803365588188171
aF0.02696800045669079
aF0.0031021509785205126
aF0.0031645563431084156
aF0.0027559122536331415
aF0.16441966593265533
aF0.0072454530745744705
aF0.004823911003768444
aF0.0034111393615603447
aF0.0032353249844163656
aF0.0023194928653538227
aF0.001875094836577773
aF0.007435803767293692
aF0.00485374266281724
aF0.00923045165836811
aF0.0034879862796515226
aF0.009221013635396957
aF0.027159057557582855
aF0.002428859705105424
aF0.089919313788414
aF0.009003864601254463
aF0.0026921299286186695
aF0.007747945375740528
aF0.0024868380278348923
aF0.02701164409518242
aF0.014954946003854275
aF0.013747196644544601
aF0.0034944836515933275
aF0.007132521830499172
aF0.0058450219221413136
aF0.0026394117157906294
aF0.008286867290735245
aF0.0009604073711670935
aF0.002853226615116
aF0.0032708251383155584
aF0.016022734344005585
aF0.001957239117473364
aF0.0018542472971603274
aF0.06997266411781311
aF0.004161478020250797
aF0.0092869121581316
aF0.0019824884366244078
aF0.0021453620865941048
aF0.0015205973759293556
aF0.005194101016968489
aF0.0012855769600719213
aF0.0013486704556271434
aF0.00838735606521368
aF0.003671223297715187
aF0.0019298160914331675
aF0.0018057981505990028
aF0.0020788307301700115
aF0.008209729567170143
aF0.008987071923911572
aF0.042128901928663254
aF0.007116525433957577
aF0.0013274898519739509
aF0.001048379228450358
aF0.031946394592523575
aF0.0033276432659476995
aF0.016598287969827652
aF0.0012555137509480119
aF0.0016343987081199884
aF0.009157063439488411
aF0.0012382909189909697
aF0.001143057830631733
aF0.0012416737154126167
aF0.005032913759350777
aF0.005620922893285751
aF0.001633137697353959
aF0.0007030923734419048
aF0.009934429079294205
aF0.0012818069662898779
aF0.0010615187929943204
aF0.0011284168576821685
aF0.0008164539467543364
aF0.0058197518810629845
aF0.004357276018708944
aF0.0007626568549312651
aF0.001155983773060143
aF0.0012275418266654015
aF0.02553248591721058
aF0.0007062352960929275
aF0.0010997289791703224
aF0.0006800387636758387
aF0.000570854579564184
aF0.0010870624100789428
aF0.0007136848289519548
aF0.004608189221471548
aF0.001619507558643818
aF0.0010010837577283382
aF0.015499182045459747
aF0.0010554618202149868
aF0.0025793295353651047
aF0.0004331073141656816
aF0.009123741649091244
aF0.031081022694706917
aF0.12476994097232819
aF0.004141750279814005
aF0.004209845792502165
aF0.0017472069012001157
aF0.0015992256812751293
aF0.0021480771247297525
aF0.0036012616474181414
aF0.0008545845630578697
aF0.0015491261146962643
aF0.0013150878949090838
aF0.0011049187742173672
aF0.02559960074722767
aF0.04759776219725609
aF0.0030226975213736296
aF0.0009012440568767488
aF0.03854084759950638
aF0.0038624925073236227
aF0.002462692093104124
aF0.002149920677766204
aF0.004999219439923763
aF0.004253705497831106
aF0.009073949418962002
aF0.06402574479579926
aF0.01133184228092432
aF0.0015627563698217273
aF0.010127056390047073
aF0.0025599037762731314
aF0.005570646375417709
aF0.0016720111016184092
aF0.0011282876366749406
aF0.0036387441214174032
aF0.0014602818991988897
aF0.00714222714304924
aF0.006189074367284775
aF0.004230831284075975
aF0.005060458090156317
aF0.002128257416188717
aF0.001427183859050274
aF0.002861469052731991
aF0.1542155146598816
aF0.0024292885791510344
aF0.0017051310278475285
aF0.0025622795801609755
aF0.0029242837335914373
aF0.011526215821504593
aF0.004061057232320309
aF0.002557194558903575
aF0.003188596572726965
aF0.0017646326450631022
aF0.07094119489192963
aF0.007081950549036264
aF0.002314402721822262
aF0.0036092668306082487
aF0.0021762775722891092
aF0.0025140102952718735
aF0.0028169502038508654
aF0.06516171246767044
aF0.013752089813351631
aF0.016278157010674477
aF0.19058847427368164
aF0.005150400567799807
aF0.003414982696995139
aF0.004211830906569958
aF0.008053611032664776
aF0.009779413230717182
aF0.005931962747126818
aF0.0033357262145727873
aF0.0055941431783139706
aF0.011522553861141205
aF0.00502099609002471
aF0.12920090556144714
aF0.17479778826236725
aF0.028852201998233795
aF0.0042739552445709705
aF0.0023902326356619596
aF0.005282709375023842
aF0.013206783682107925
aF0.00985561590641737
aF0.004609737545251846
aF0.003390733851119876
aF0.020482586696743965
aF0.0075116329826414585
aF0.007039051037281752
aF0.009336672723293304
aF0.015667667612433434
aF0.007283494342118502
aF0.004863513633608818
aF0.004141934681683779
aF0.030665528029203415
aF0.00501442514359951
aF0.0038643681909888983
aF0.011442468501627445
aF0.004805764649063349
aF0.016731638461351395
aF0.0028527076356112957
aF0.0034729663748294115
aF0.0030277108307927847
aF0.011822977103292942
aF0.004078006371855736
aF0.012133680284023285
aF0.004548896104097366
aF0.017487963661551476
aF0.004114426206797361
aF0.0016488684341311455
aF0.0029680575244128704
aF0.001496891025453806
aF0.0017720387550070882
aF0.0012068779906257987
aF0.0007198422099463642
aF0.004774690140038729
aF0.006682869978249073
aF0.0008951057679951191
aF0.0004571674217004329
aF0.0006556839216500521
aF0.0011671662796288729
aF0.0006621554493904114
aF0.0032420943025499582
aF0.005952852312475443
aF0.0005103015573695302
aF0.0015374600188806653
aF0.0006536624860018492
aF0.0006084128399379551
aF0.11842822283506393
aF0.005913600325584412
aF0.003517535049468279
aF0.000634332827758044
aF0.0013622911646962166
aF0.0009036716655828059
aF0.006593742873519659
aF0.09498807042837143
aF0.006505369674414396
aF0.0009759145323187113
aF0.0009876345284283161
aF0.005467095412313938
aF0.0026776918675750494
aF0.016168303787708282
aF0.0020082280971109867
aF0.001936103100888431
aF0.0017380332574248314
aF0.0017332670977339149
aF0.01723499968647957
aF0.0045325905084609985
aF0.0016046339878812432
aF0.0017244605114683509
aF0.001224543317221105
aF0.004103995393961668
aF0.005329261068254709
aF0.002130815526470542
aF0.0017631598748266697
aF0.006391399540007114
aF0.015024982392787933
aF0.0012114611454308033
aF0.07217425853013992
aF0.001066573429852724
aF0.0012900735018774867
aF0.01862466335296631
aF0.0018545970087870955
aF0.0034534393344074488
aF0.008679277263581753
aF0.0010549240978434682
aF0.016073253005743027
aF0.0030686247628182173
aF0.003528967732563615
aF0.0012876384425908327
aF0.0024157881271094084
aF0.004581134766340256
aF0.006950593553483486
aF0.0015068777138367295
aF0.003653228748589754
aF0.005904048215597868
aF0.0031473066192120314
aF0.004063206259161234
aF0.0099533312022686
aF0.0009223329252563417
aF0.0013924820814281702
aF0.0010744917672127485
aF0.008022500202059746
aF0.005342266988009214
aF0.001758134108968079
aF0.0011260055471211672
aF0.001304372912272811
aF0.006346809212118387
aF0.005346393212676048
aF0.039016589522361755
aF0.0008651578100398183
aF0.0026597189716994762
aF0.01029959786683321
aF0.0010920590721070766
aF0.0012252972228452563
aF0.001159884501248598
aF0.001123097725212574
aF0.0008491990738548338
aF0.022420158609747887
aF0.024922441691160202
aF0.002687308471649885
aF0.051750894635915756
aF0.0012130491668358445
aF0.0012583917705342174
aF0.001039133407175541
aF0.0009470732184126973
aF0.007143932394683361
aF0.009805231355130672
aF0.0012612721184268594
aF0.001058871508575976
aF0.0023545247968286276
aF0.0174274779856205
aF0.005413129925727844
aF0.010088696144521236
aF0.007770583964884281
aF0.004512461367994547
aF0.0953710675239563
aF0.002585014794021845
aF0.01735232025384903
aF0.002426725812256336
aF0.0017160573042929173
aF0.1388586312532425
aF0.00253743096254766
aF0.01179839763790369
aF0.09139765053987503
aF0.04343373328447342
aF0.003845387604087591
aF0.0022393378894776106
aF0.021314719691872597
aF0.007330597378313541
aF0.007969030179083347
aF0.00322132371366024
aF0.06729043275117874
aF0.0053651113994419575
aF0.008931216783821583
aF0.009088863618671894
aF0.03151596337556839
aF0.004864680580794811
aF0.005000587552785873
aF0.005938183981925249
aF0.0054242489859461784
aF0.0035960848908871412
aF0.020020615309476852
aF0.0025396344717592
aF0.0035769548267126083
aF0.0066875191405415535
aF0.009255757555365562
aF0.025921400636434555
aF0.22418469190597534
aF0.02180439978837967
aF0.006537517067044973
aF0.004338976461440325
aF0.011232346296310425
aF0.04569217562675476
aF0.008118467405438423
aF0.010126117616891861
aF0.08486167341470718
aF0.012436537072062492
aF0.009150334633886814
aF0.006331221200525761
aF0.15890881419181824
aF0.006352264899760485
aF0.01648588851094246
aF0.006214539986103773
aF0.025094974786043167
aF0.008015097118914127
aF0.012293974868953228
aF0.0060555399395525455
aF0.007633764296770096
aF0.009990192018449306
aF0.008711987175047398
aF0.005440996959805489
aF0.004169996827840805
aF0.006165856495499611
aF0.013393579050898552
aF0.0038932827301323414
aF0.004326119087636471
aF0.027620382606983185
aF0.08034549653530121
aF0.0021182687487453222
aF0.0034900603350251913
aF0.0029896143823862076
aF0.0028373023960739374
aF0.003995057195425034
aF0.002450828207656741
aF0.0020161126740276814
aF0.0016484205843880773
aF0.0012335211504250765
aF0.07708916068077087
aF0.0028984101954847574
aF0.009636836126446724
aF0.0010867177043110132
aF0.043507203459739685
aF0.001989430747926235
aF0.0018348307348787785
aF0.0026773980353027582
aF0.0011585437459871173
aF0.00223104958422482
aF0.0028883288614451885
aF0.0038429098203778267
aF0.03773117810487747
aF0.005124332848936319
aF0.0017939172685146332
aF0.043165698647499084
aF0.002189320046454668
aF0.0019537429325282574
aF0.001988850301131606
aF0.011347553692758083
aF0.0012010643258690834
aF0.0028880389872938395
aF0.003725140355527401
aF0.018372075632214546
aF0.031210504472255707
aF0.0020093952771276236
aF0.0012680583167821169
aF0.003813147312030196
aF0.002198676345869899
aF0.002900814637541771
aF0.004414083901792765
aF0.0013906032545492053
aF0.001746655092574656
aF0.004976505413651466
aF0.004266348667442799
aF0.001344655524007976
aF0.021884024143218994
aF0.0014290651306509972
aF0.0014209941728040576
aF0.0016222669510170817
aF0.004676997661590576
aF0.037027254700660706
aF0.09837651252746582
aF0.007580811623483896
aF0.03262857347726822
aF0.0013872395502403378
aF0.03339513763785362
aF0.002116382122039795
aF0.004395659081637859
aF0.0018605896038934588
aF0.006381182000041008
aF0.002295798622071743
aF0.007021800614893436
aF0.07410239428281784
aF0.0862029567360878
aF0.003900248324498534
aF0.006568250712007284
aF0.004937997553497553
aF0.0016882551135495305
aF0.005934715270996094
aF0.002959123346954584
aF0.01412386354058981
aF0.003211641451343894
aF0.01661323569715023
aF0.003813626477494836
aF0.012231385335326195
aF0.004285789094865322
aF0.002806534757837653
aF0.0031985591631382704
aF0.13611775636672974
aF0.0039260126650333405
aF0.0027309791184961796
aF0.002523601520806551
aF0.02629195526242256
aF0.002469329396262765
aF0.07628888636827469
aF0.0035914997570216656
aF0.00412775157019496
aF0.003744280431419611
aF0.003503443207591772
aF0.005134386941790581
aF0.012383515946567059
aF0.004515554755926132
aF0.009949952363967896
aF0.010235156863927841
aF0.003972309175878763
aF0.003983679693192244
aF0.006319291424006224
aF0.008074919693171978
aF0.043508414179086685
aF0.0073705711401999
aF0.04073095694184303
aF0.002361269434913993
aF0.01157455611974001
aF0.0013805263442918658
aF0.004972204566001892
aF0.004209976177662611
aF0.01878681406378746
aF0.18825273215770721
aF0.0023368855472654104
aF0.012072461657226086
aF0.0046230461448431015
aF0.002592126838862896
aF0.0029820119962096214
aF0.008282981812953949
aF0.0017791279824450612
aF0.002288238378241658
aF0.07680193334817886
aF0.023973392322659492
aF0.003994854167103767
aF0.004909798968583345
aF0.02931412123143673
aF0.018613241612911224
aF0.005954416934400797
aF0.005662883166223764
aF0.0062385862693190575
aF0.009690185077488422
aF0.003357886802405119
aF0.005515052936971188
aF0.003905997611582279
aF0.003562229685485363
aF0.003405700670555234
aF0.013813734985888004
aF0.002633001422509551
aF0.06366629153490067
aF0.0033160557504743338
aF0.0025633734185248613
aF0.002141744364053011
aF0.017274998128414154
aF0.005790427327156067
aF0.0031820416916161776
aF0.0033327292185276747
aF0.010305275209248066
aF0.016531385481357574
aF0.005282760597765446
aF0.08404354751110077
aF0.0027194118592888117
aF0.0010881870985031128
aF0.007771451026201248
aF0.003402103902772069
aF0.0022879813332110643
aF0.0016441367333754897
aF0.002137832110747695
aF0.0013018903555348516
aF0.002218067878857255
aF0.0023800197523087263
aF0.0015725544653832912
aF0.06349042803049088
aF0.002472627442330122
aF0.0012859844136983156
aF0.0012934206752106547
aF0.009103278629481792
aF0.0029328896198421717
aF0.010124747641384602
aF0.0076301805675029755
aF0.0019159349612891674
aF0.015388957224786282
aF0.011183195747435093
aF0.0009165284573100507
aF0.02175850048661232
aF0.0011546872556209564
aF0.019409408792853355
aF0.0011105642188340425
aF0.006861070170998573
aF0.001624424709007144
aF0.0010880447225645185
aF0.0014715909492224455
aF0.0047229016199707985
aF0.0009380332194268703
aF0.002190185943618417
aF0.0007997658103704453
aF0.08596225082874298
aF0.0013561892556026578
aF0.0006218659691512585
aF0.0026506443973630667
aF0.001233682269230485
aF0.002337547717615962
aF0.011763013899326324
aF0.02009592391550541
aF0.0011224353220313787
aF0.001507121603935957
aF0.1817290335893631
aF0.0017973686335608363
aF0.0034490188118070364
aF0.00265387911349535
aF0.0016910150879994035
aF0.005432328209280968
aF0.006801533047109842
aF0.0028042038902640343
aF0.001895483466796577
aF0.12113238871097565
aF0.007687953766435385
aF0.0030408413149416447
aF0.013109994120895863
aF0.04063151031732559
aF0.005298812408000231
aF0.004008445423096418
aF0.0073842862620949745
aF0.006618132349103689
aF0.003658178262412548
aF0.008695307187736034
aF0.0027794393245130777
aF0.024246904999017715
aF0.15905854105949402
aF0.003937824629247189
aF0.09606003016233444
aF0.00833592377603054
aF0.002532088430598378
aF0.045440103858709335
aF0.009962867014110088
aF0.015048899687826633
aF0.008006547577679157
aF0.020426491275429726
aF0.0046450612135231495
aF0.007596906274557114
aF0.028119327500462532
aF0.007642791606485844
aF0.008543239906430244
aF0.010128211230039597
aF0.0045133247040212154
aF0.017384735867381096
aF0.0034211839083582163
aF0.004841133486479521
aF0.004066008608788252
aF0.0076752821914851665
aF0.03870179131627083
aF0.004055952653288841
aF0.003050394356250763
aF0.005502393934875727
aF0.0012121520703658462
aF0.009581359103322029
aF0.007222931366413832
aF0.019977165386080742
aF0.0019323601154610515
aF0.0022699269466102123
aF0.0017291436670348048
aF0.001193625503219664
aF0.000758542213588953
aF0.0012068607611581683
aF0.0012890452053397894
aF0.0012316158972680569
aF0.009492904879152775
aF0.010065710172057152
aF0.0020072904881089926
aF0.0012501662131398916
aF0.0020081032998859882
aF0.02444087713956833
aF0.011937619186937809
aF0.006921984720975161
aF0.001480835024267435
aF0.01939089596271515
aF0.0011320910416543484
aF0.0009915578411892056
aF0.00114080507773906
aF0.001090852776542306
aF0.012595586478710175
aF0.007440253160893917
aF0.0032820955384522676
aF0.004689780529588461
aF0.04059344902634621
aF0.0006435156101360917
aF0.0026390820275992155
aF0.0007727817283011973
aF0.0011287071974948049
aF0.0006983867497183383
aF0.0013888293178752065
aF0.01886933296918869
aF0.00587873999029398
aF0.02983982488512993
aF0.001261752680875361
aF0.0012483862228691578
aF0.0011248532682657242
aF0.003587914863601327
aF0.011645852588117123
aF0.014797103591263294
aF0.05122237280011177
aF0.0009687903802841902
aF0.014465919695794582
aF0.0008171654189936817
aF0.0015063892351463437
aF0.08595995604991913
aF0.001461761654354632
aF0.001271254732273519
aF0.00501280790194869
aF0.002110057743266225
aF0.002894231816753745
aF0.002038318198174238
aF0.01025303639471531
aF0.004775645211338997
aF0.0013427756493911147
aF0.008104737848043442
aF0.0021574203856289387
aF0.1193062961101532
aF0.003142704488709569
aF0.007829908281564713
aF0.004248867277055979
aF0.004862369038164616
aF0.007118347566574812
aF0.0038301199674606323
aF0.006341368425637484
aF0.017671877518296242
aF0.01002017967402935
aF0.0030031607020646334
aF0.002999714110046625
aF0.00398099422454834
aF0.0049751270562410355
aF0.003531545400619507
aF0.0029266795609146357
aF0.0023308212403208017
aF0.010373614728450775
aF0.0025412908289581537
aF0.001310701947659254
aF0.0023218514397740364
aF0.06062676012516022
aF0.001502170693129301
aF0.04219916835427284
aF0.001246674102731049
aF0.05027041584253311
aF0.003089603967964649
aF0.01250550989061594
aF0.0036263817455619574
aF0.019805340096354485
aF0.0017271421384066343
aF0.0024798884987831116
aF0.20185428857803345
aF0.0017386655090376735
aF0.0070250388234853745
aF0.035248368978500366
aF0.004160820972174406
aF0.010828365571796894
aF0.004527980927377939
aF0.002139726420864463
aF0.010560323484241962
aF0.0057770004495978355
aF0.001830108230933547
aF0.011282794177532196
aF0.018716657534241676
aF0.010975663550198078
aF0.005615423899143934
aF0.009664964862167835
aF0.0026164809241890907
aF0.003155179088935256
aF0.005277927964925766
aF0.0033028412144631147
aF0.014476697891950607
aF0.0033287019468843937
aF0.01028478518128395
aF0.0031649682205170393
aF0.03455368056893349
aF0.002308158902451396
aF0.004929098300635815
aF0.0024181054905056953
aF0.003013910260051489
aF0.0014751090202480555
aF0.0060700178146362305
aF0.004818492103368044
aF0.00561229232698679
aF0.0125843221321702
aF0.002452654065564275
aF0.06055321544408798
aF0.006489047314971685
aF0.001132260193116963
aF0.005247439723461866
aF0.0020119384862482548
aF0.002964416053146124
aF0.0017609444912523031
aF0.0011558685218915343
aF0.0038552868645638227
aF0.0019319875864312053
aF0.01640933007001877
aF0.001207412569783628
aF0.001793940900824964
aF0.01287501398473978
aF0.0016054080333560705
aF0.0009150877012871206
aF0.015638960525393486
aF0.0006612920551560819
aF0.027842683717608452
aF0.0015771762700751424
aF0.011561538092792034
aF0.0006865148898214102
aF0.0037988272961229086
aF0.13859210908412933
aF0.0011157961562275887
aF0.0027905672322958708
aF0.002237033098936081
aF0.01930083893239498
aF0.026371177285909653
aF0.0014992245705798268
aF0.004418523982167244
aF0.005662509240210056
aF0.001900978502817452
aF0.0020786188542842865
aF0.0066412510350346565
aF0.0028152568265795708
aF0.04114980250597
aF0.00886654295027256
aF0.015212412923574448
aF0.021237526088953018
aF0.00212879222817719
aF0.0032323102932423353
aF0.16386471688747406
aF0.0024977668654173613
aF0.0015555305872112513
aF0.002074113581329584
aF0.0036702549550682306
aF0.010387580841779709
aF0.00392752094194293
aF0.004896840546280146
aF0.004235499072819948
aF0.004623414017260075
aF0.06556850671768188
aF0.011861841194331646
aF0.03604651987552643
aF0.004031151998788118
aF0.010211239568889141
aF0.0032935948111116886
aF0.04837304726243019
aF0.004914159420877695
aF0.004902956075966358
aF0.00327510479837656
aF0.004941094666719437
aF0.010256711393594742
aF0.003933990374207497
aF0.003937197383493185
aF0.005931503605097532
aF0.003050318220630288
aF0.0023809215053915977
aF0.0030808006413280964
aF0.0030669784173369408
aF0.0018834718503057957
aF0.0018830513581633568
aF0.0010666174348443747
aF0.006237199064344168
aF0.0019701626151800156
aF0.005423484370112419
aF0.0011549456976354122
aF0.0007321990560740232
aF0.01305004209280014
aF0.04177037253975868
aF0.0013826028443872929
aF0.0038424176163971424
aF0.0014636392006650567
aF0.0011491607874631882
aF0.0011833332246169448
aF0.012170598842203617
aF0.052874449640512466
aF0.000970252847764641
aF0.0022438985761255026
aF0.0010874905856326222
aF0.004059149883687496
aF0.0257286187261343
aF0.0009142905473709106
aF0.010337586514651775
aF0.003865274600684643
aF0.005135086830705404
aF0.0011692893458530307
aF0.0009667440317571163
aF0.017736807465553284
aF0.004405471030622721
aF0.004121315199881792
aF0.11911334842443466
aF0.0008123225998133421
aF0.045035917311906815
aF0.0014463856350630522
aF0.0013689270708709955
aF0.0018637387547641993
aF0.0077124182134866714
aF0.0017512519843876362
aF0.0069572217762470245
aF0.0020195958204567432
aF0.0017074084607884288
aF0.06145098805427551
aF0.0765826627612114
aF0.0051407781429588795
aF0.0033808450680226088
aF0.004141528625041246
aF0.0028530056588351727
aF0.0027795033529400826
aF0.005649976897984743
aF0.0032811015844345093
aF0.023677583783864975
aF0.0032340157777071
aF0.3501928448677063
aF0.0032213793601840734
aF0.006185135338455439
aF0.0049328128807246685
aF0.00814856681972742
aF0.007235786411911249
aF0.010584574192762375
aF0.09797700494527817
aF0.012942618690431118
aF0.010995839722454548
aF0.01194844301789999
aF0.007648848928511143
aF0.007704809308052063
aF0.006298176012933254
aF0.006533380597829819
aF0.007840833626687527
aF0.0065610939636826515
aF0.00994686409831047
aF0.005049032624810934
aF0.04111076891422272
aF0.007570059970021248
aF0.008336037397384644
aF0.0033837396185845137
aF0.004960557445883751
aF0.007469626143574715
aF0.006354018114507198
aF0.0045388140715658665
aF0.0039289845153689384
aF0.010942071676254272
aF0.06000800058245659
aF0.0036194208078086376
aF0.00609876774251461
aF0.09278687089681625
aF0.006373682990670204
aF0.001224019448272884
aF0.001146913506090641
aF0.002894839970394969
aF0.004075184930115938
aF0.08239869773387909
aF0.0066930619068443775
aF0.020099159330129623
aF0.002734574256464839
aF0.006150988861918449
aF0.0031378092244267464
aF0.006546155083924532
aF0.00948514137417078
aF0.0032014590688049793
aF0.003575435606762767
aF0.12062486261129379
aF0.0035743354819715023
aF0.009852303192019463
aF0.09547538310289383
aF0.002496219240128994
aF0.0047753239050507545
aF0.004684623330831528
aF0.1685498207807541
aF0.004173487890511751
aF0.0032964590936899185
aF0.030294708907604218
aF0.003267942927777767
aF0.0038696215488016605
aF0.003542764112353325
aF0.006248272489756346
aF0.0081436512991786
aF0.01195608451962471
aF0.05127139016985893
aF0.041841816157102585
aF0.0037915711291134357
aF0.04682667925953865
aF0.0062422682531178
aF0.020586838945746422
aF0.03097590245306492
aF0.005643707234412432
aF0.015379095450043678
aF0.005744955036789179
aF0.004622457083314657
aF0.005351898726075888
aF0.005790209397673607
aF0.006119000259786844
aF0.0049250866286456585
aF0.006757023278623819
aF0.1560247391462326
aF0.004944414831697941
aF0.002148092957213521
aF0.003104806412011385
aF0.004059899598360062
aF0.003958703484386206
aF0.0034806670155376196
aF0.003011006396263838
aF0.003444820176810026
aF0.027302846312522888
aF0.0032147271558642387
aF0.005706141237169504
aF0.046323228627443314
aF0.002126016654074192
aF0.002199512207880616
aF0.002774928929284215
aF0.0033509826753288507
aF0.0054456922225654125
aF0.003375874599441886
aF0.005767029244452715
aF0.002552442252635956
aF0.0029517372604459524
aF0.0017834892496466637
aF0.09296183288097382
aF0.011874855495989323
aF0.0019256839295849204
aF0.04301192983984947
aF0.0013979283394291997
aF0.004817199427634478
aF0.053536687046289444
aF0.0056090643629431725
aF0.00831288006156683
aF0.00747734634205699
aF0.0017329939873889089
aF0.0038202395662665367
aF0.012525536119937897
aF0.012108372524380684
aF0.06858903169631958
aF0.0027106052730232477
aF0.0023188511840999126
aF0.024588875472545624
aF0.0026067111175507307
aF0.006344479043036699
aF0.0021695992909371853
aF0.00487205944955349
aF0.0017497470835223794
aF0.002718448406085372
aF0.002194461179897189
aF0.00306929019279778
aF0.010719703510403633
aF0.003217620775103569
aF0.0021824385039508343
aF0.0021474165841937065
aF0.0029341240879148245
aF0.003364111762493849
aF0.0011687276419252157
aF0.00780543964356184
aF0.0018213341245427728
aF0.0014732518466189504
aF0.010496821254491806
aF0.008172213099896908
aF0.006592117715626955
aF0.0007190637406893075
aF0.007702747825533152
aF0.0012217967305332422
aF0.054633013904094696
aF0.05890929326415062
aF0.010438724420964718
aF0.001152929849922657
aF0.0057805925607681274
aF0.0029003696981817484
aF0.00119594216812402
aF0.0021205060184001923
aF0.0040667252615094185
aF0.0032160866539925337
aF0.007415546104311943
aF0.0012737361248582602
aF0.001261224620975554
aF0.0012221914948895574
aF0.029174327850341797
aF0.0035956543870270252
aF0.07892856001853943
aF0.0027098539285361767
aF0.006209463346749544
aF0.021972274407744408
aF0.010274283587932587
aF0.11474234610795975
aF0.002467254176735878
aF0.006774967070668936
aF0.0023066208232194185
aF0.005732005927711725
aF0.006826850585639477
aF0.0034478141460567713
aF0.002900540828704834
aF0.0018125270726159215
aF0.0025894728023558855
aF0.002640429651364684
aF0.003055158769711852
aF0.0015864336164668202
aF0.1326126754283905
aF0.00714128790423274
aF0.16917668282985687
aF0.0034403414465487003
aF0.002685284474864602
aF0.0035539744421839714
aF0.014898519963026047
aF0.005078458227217197
aF0.004429180175065994
aF0.005229488015174866
aF0.006284871604293585
aF0.00427170330658555
aF0.0036093713715672493
aF0.005091601051390171
aF0.005136501044034958
aF0.005265613552182913
aF0.13168226182460785
aF0.025785325095057487
aF0.003092413069680333
aF0.004375759046524763
aF0.0039258087053895
aF0.0032692060340195894
aF0.00486163841560483
aF0.006926426663994789
aF0.01888005994260311
aF0.026157794520258904
aF0.004430267959833145
aF0.009924236685037613
aF0.018976828083395958
aF0.00874612107872963
aF0.002673205453902483
aF0.002862927271053195
aF0.06039303168654442
aF0.03335028141736984
aF0.0028102353680878878
aF0.025190602988004684
aF0.002470635809004307
aF0.002033564727753401
aF0.002821729751303792
aF0.003680834546685219
aF0.006438750773668289
aF0.0030347013380378485
aF0.014666051603853703
aF0.0033046093303710222
aF0.0024254193995147943
aF0.001245191553607583
aF0.0022548313718289137
aF0.00047824319335632026
aF0.0015273727476596832
aF0.0028634434565901756
aF0.0022736142855137587
aF0.02078413777053356
aF0.006678851321339607
aF0.005217557307332754
aF0.016587791964411736
aF0.0024916892871260643
aF0.005546492524445057
aF0.001218420802615583
aF0.008623624220490456
aF0.0012775653740391135
aF0.00198617996647954
aF0.0021503844764083624
aF0.0019787782803177834
aF0.001494258758611977
aF0.22623366117477417
aF0.001671327045187354
aF0.009351982735097408
aF0.0053438302129507065
aF0.0027952445670962334
aF0.0025549177080392838
aF0.03245827183127403
aF0.0017392773879691958
aF0.03258046135306358
aF0.0032340313773602247
aF0.0028906946536153555
aF0.0035830766428261995
aF0.002036005025729537
aF0.002373120514675975
aF0.004614677280187607
aF0.04680246487259865
aF0.00826684944331646
aF0.029697762802243233
aF0.008006657473742962
aF0.049132805317640305
aF0.0018386421725153923
aF0.0019480707123875618
aF0.004467655438929796
aF0.0036242124624550343
aF0.003447736846283078
aF0.028439126908779144
aF0.005070963874459267
aF0.006769073661416769
aF0.002397689502686262
aF0.002980231773108244
aF0.0021001107525080442
aF0.00576033815741539
aF0.0021818929817527533
aF0.0023276624269783497
aF0.002883219625800848
aF0.003351463470607996
aF0.030381156131625175
aF0.023974157869815826
aF0.003980914130806923
aF0.010836990550160408
aF0.003065622178837657
aF0.007614079862833023
aF0.00113445904571563
aF0.0013915534364059567
aF0.0009691531886346638
aF0.001412325189448893
aF0.0011542805004864931
aF0.04220261424779892
aF0.001659647561609745
aF0.02300126850605011
aF0.014382517896592617
aF0.0012702473904937506
aF0.00345482281409204
aF0.010448948480188847
aF0.0033569547813385725
aF0.0027758125215768814
aF0.0266928281635046
aF0.0010434718569740653
aF0.008519354276359081
aF0.004751110915094614
aF0.06527390331029892
aF0.004072174429893494
aF0.0019948866683989763
aF0.0023179769050329924
aF0.0018932627281174064
aF0.0021384600549936295
aF0.09041091799736023
aF0.025319235399365425
aF0.0021936576813459396
aF0.002379336627200246
aF0.016080044209957123
aF0.0048496606759727
aF0.0019013566197827458
aF0.002224886091426015
aF0.00861759390681982
aF0.0016569243744015694
aF0.003050911473110318
aF0.0016044207150116563
aF0.0019114123424515128
aF0.019531313329935074
aF0.006221863441169262
aF0.0025988598354160786
aF0.009058150462806225
aF0.0018713789759203792
aF0.030525632202625275
aF0.0015182445058599114
aF0.007024518214166164
aF0.001695171813480556
aF0.0015739729860797524
aF0.0080629363656044
aF0.01772387884557247
aF0.0019407006911933422
aF0.00420078681781888
aF0.0015407369937747717
aF0.0015238047344610095
aF0.0015448370249941945
aF0.00193587108515203
aF0.003065622877329588
aF0.0006728193839080632
aF0.012757002376019955
aF0.006690706592053175
aF0.0012750873574987054
aF0.0024146256037056446
aF0.0012141780462116003
aF0.0008233871776610613
aF0.0026428180281072855
aF0.0009152763523161411
aF0.15490026772022247
aF0.16905958950519562
aF0.14872461557388306
aF0.014278422109782696
aF0.013738448731601238
aF0.0050265290774405
aF0.02571011334657669
aF0.04655483737587929
aF0.024981608614325523
aF0.005502551328390837
aF0.010777045041322708
aF0.04241873323917389
aF0.011412193067371845
aF0.018809454515576363
aF0.007556418422609568
aF0.009655358269810677
aF0.012492516078054905
aF0.00983878318220377
aF0.009220020845532417
aF0.006936815567314625
aF0.006973495706915855
aF0.014502419158816338
aF0.008297495543956757
aF0.005223133135586977
aF0.006844724994152784
aF0.004291980993002653
aF0.027286361902952194
aF0.014093423262238503
aF0.017722327262163162
aF0.006835550535470247
aF0.004808639641851187
aF0.003588533028960228
aF0.0026968393940478563
aF0.0028900126926600933
aF0.0034229299053549767
aF0.009265056811273098
aF0.02539351023733616
aF0.002623641397804022
aF0.00930414255708456
aF0.006166767794638872
aF0.001844515441916883
aF0.008301090449094772
aF0.0061745429411530495
aF0.008587142452597618
aF0.005153588484972715
aF0.06782828271389008
aF0.00599744962528348
aF0.0015177204040810466
aF0.002643955172970891
aF0.0012292301980778575
aF0.00175109610427171
aF0.001198594574816525
aF0.0012299028458073735
aF0.0008498914539813995
aF0.006055484060198069
aF0.001053044106811285
aF0.025427205488085747
aF0.023080823943018913
aF0.001594607369042933
aF0.003346696263179183
aF0.0009542682091705501
aF0.002300400286912918
aF0.000793875427916646
aF0.0011859642108902335
aF0.1397203952074051
aF0.03727389872074127
aF0.0015146279474720359
aF0.0013650887412950397
aF0.0015010968782007694
aF0.0015428033657371998
aF0.016104361042380333
aF0.0029523426201194525
aF0.012708312831819057
aF0.0012145809596404433
aF0.010961477644741535
aF0.0018141843611374497
aF0.00592936621978879
aF0.024210767820477486
aF0.001496999990195036
aF0.00527539849281311
aF0.0019299386767670512
aF0.002093213377520442
aF0.002687642350792885
aF0.0022089178673923016
aF0.029913408681750298
aF0.028623206540942192
aF0.004128226079046726
aF0.1489432007074356
aF0.0016234471695497632
aF0.0027150448877364397
aF0.0032388102263212204
aF0.0022043215576559305
aF0.002511512255296111
aF0.008077499456703663
aF0.003617603098973632
aF0.003181994194164872
aF0.0016779196448624134
aF0.0027283558156341314
aF0.0035843285731971264
aF0.00749760027974844
aF0.0028862531762570143
aF0.01915823109447956
aF0.0028475543949753046
aF0.0016974774189293385
aF0.0016224031569436193
aF0.08141420781612396
aF0.0060289232060313225
aF0.002360093640163541
aF0.0017970680491998792
aF0.001552111585624516
aF0.001383019145578146
aF0.08446764200925827
aF0.0017814466264098883
aF0.006411821115761995
aF0.012035629712045193
aF0.0010961602674797177
aF0.005003065802156925
aF0.009149528108537197
aF0.00321903801523149
aF0.0034520323388278484
aF0.00256062182597816
aF0.0021711895242333412
aF0.0016677723033353686
aF0.0026276749558746815
aF0.004171689972281456
aF0.0016851687105372548
aF0.002124365419149399
aF0.0021629235707223415
aF0.002790781669318676
aF0.007714468520134687
aF0.0014850220177322626
aF0.01648426242172718
aF0.017325736582279205
aF0.0017691291868686676
aF0.010460281744599342
aF0.0006654286407865584
aF0.001808091881684959
aF0.04568701609969139
aF0.0015579090686514974
aF0.031908340752124786
aF0.0006570126861333847
aF0.0009324466227553785
aF0.0015553953126072884
aF0.005716225132346153
aF0.013321463949978352
aF0.001386225805617869
aF0.011669903993606567
aF0.040003687143325806
aF0.010724714957177639
aF0.032499298453330994
aF0.0024510484654456377
aF0.0017305491492152214
aF0.0013069248525425792
aF0.039952609688043594
aF0.002061643172055483
aF0.027167020365595818
aF0.004047475289553404
aF0.0015161243500187993
aF0.04015643522143364
aF0.01855720765888691
aF0.013506632298231125
aF0.0033231282141059637
aF0.00592268630862236
aF0.002863603411242366
aF0.0023094366770237684
aF0.01826510578393936
aF0.06430257856845856
aF0.0017742648487910628
aF0.10574983805418015
aF0.00703378627076745
aF0.003339451504871249
aF0.013403559103608131
aF0.007778674829751253
aF0.0028697997331619263
aF0.0027302803937345743
aF0.003631358267739415
aF0.001095774583518505
aF0.0036559945438057184
aF0.0019999754149466753
aF0.08230967819690704
aF0.005857337266206741
aF0.003814966417849064
aF0.008415752090513706
aF0.00785075593739748
aF0.04386976733803749
aF0.006425964180380106
aF0.004092289600521326
aF0.003462666179984808
aF0.0036763802636414766
aF0.03502717614173889
aF0.006431614514440298
aF0.06976155191659927
aF0.0688345730304718
aF0.0037104650400578976
aF0.0038324277848005295
aF0.019178487360477448
aF0.024956898763775826
aF0.0045621986500918865
aF0.01374666579067707
aF0.016821034252643585
aF0.003650240832939744
aF0.002789669670164585
aF0.0013305018655955791
aF0.004238385707139969
aF0.011266476474702358
aF0.006550653837621212
aF0.0023595949169248343
aF0.003745035734027624
aF0.0029073802288621664
aF0.0040903519839048386
aF0.003542852820828557
aF0.0031447946093976498
aF0.0010268079349771142
aF0.0021077198907732964
aF0.1116948276758194
aF0.00442487234249711
aF0.005413527134805918
aF0.005810796748846769
aF0.003221670165657997
aF0.0019935716409236193
aF0.007809826638549566
aF0.01000385731458664
aF0.0016146431444212794
aF0.002493465319275856
aF0.006385282147675753
aF0.0013859298778697848
aF0.010924514383077621
aF0.03264744579792023
aF0.00209916103631258
aF0.001384340226650238
aF0.01215984858572483
aF0.0018311330350115895
aF0.018517006188631058
aF0.0029554825741797686
aF0.002430714201182127
aF0.0014086490264162421
aF0.001938760164193809
aF0.02825632505118847
aF0.0008767597610130906
aF0.1665976494550705
aF0.11492756009101868
aF0.007888693362474442
aF0.015266712754964828
aF0.0020078730303794146
aF0.0030411614570766687
aF0.003422084730118513
aF0.003858152311295271
aF0.0038337872829288244
aF0.0076744738034904
aF0.0025569128338247538
aF0.003958310466259718
aF0.005826103501021862
aF0.010209508240222931
aF0.011921538971364498
aF0.0031715857330709696
aF0.02188699319958687
aF0.004480648785829544
aF0.003161443630233407
aF0.003162523964419961
aF0.0015729045262560248
aF0.0021168070379644632
aF0.01837698556482792
aF0.009187119081616402
aF0.03226390853524208
aF0.05331223085522652
aF0.08070153743028641
aF0.004045563749969006
aF0.009721827693283558
aF0.003842317033559084
aF0.0036124084144830704
aF0.0013846345245838165
aF0.0024874205701053143
aF0.0019394074333831668
aF0.003571096109226346
aF0.00969388335943222
aF0.0036351706366986036
aF0.013287116773426533
aF0.009321153163909912
aF0.13218210637569427
aF0.010382551699876785
aF0.0028050506953150034
aF0.007834664545953274
aF0.014264093711972237
aF0.006790801417082548
aF0.0027487906627357006
aF0.002799680922180414
aF0.0032216235995292664
aF0.005689925979822874
aF0.0028545320965349674
aF0.011211947537958622
aF0.004288509953767061
aF0.0024421324487775564
aF0.0019013097044080496
aF0.002595667727291584
aF0.0019502220675349236
aF0.0017611144576221704
aF0.004389872308820486
aF0.07915748655796051
aF0.0017826049588620663
aF0.0008795239846222103
aF0.0016039707697927952
aF0.0019293235382065177
aF0.008638127706944942
aF0.001182542648166418
aF0.0009018827113322914
aF0.017646310850977898
aF0.0018686370458453894
aF0.0009461406152695417
aF0.001632710569538176
aF0.0016737522091716528
aF0.002406231127679348
aF0.014622213318943977
aF0.0014188445638865232
aF0.0007515947218053043
aF0.010013771243393421
aF0.01850566267967224
aF0.0012867192272096872
aF0.003032000968232751
aF0.020146526396274567
aF0.0015743402764201164
aF0.0010796473361551762
aF0.0013484989758580923
aF0.0009194114245474339
aF0.001961831236258149
aF0.02413712814450264
aF0.002465574536472559
aF0.0011167620541527867
aF0.003024658188223839
aF0.0006711659370921552
aF0.006538063287734985
aF0.054043013602495193
aF0.011292585171759129
aF0.0012859274866059422
aF0.06634512543678284
aF0.0014124484732747078
aF0.0016614876221865416
aF0.0012925462797284126
aF0.0007895388989709318
aF0.03316853940486908
aF0.001169901923276484
aF0.0017285530921071768
aF0.04712747037410736
aF0.00435340590775013
aF0.00699659762904048
aF0.0011905452702194452
aF0.009310907684266567
aF0.10694750398397446
aF0.0025912970304489136
aF0.0027991337701678276
aF0.000725155754480511
aF0.002279911655932665
aF0.001731580006889999
aF0.0031311619095504284
aF0.005502352491021156
aF0.031506795436143875
aF0.0018387483432888985
aF0.007026457693427801
aF0.0048172059468925
aF0.0034404483158141375
aF0.0027391714975237846
aF0.0017375762108713388
aF0.004016329068690538
aF0.0017379699274897575
aF0.02801336534321308
aF0.0017428117571398616
aF0.001418004627339542
aF0.0023680280428379774
aF0.07103364914655685
aF0.12739548087120056
aF0.001809104811400175
aF0.003526014043018222
aF0.0029289410449564457
aF0.00395945692434907
aF0.002711415523663163
aF0.0032441038638353348
aF0.005347430240362883
aF0.0016200810205191374
aF0.004687635228037834
aF0.00960032269358635
aF0.0033664896618574858
aF0.003475368954241276
aF0.006051251664757729
aF0.016250820830464363
aF0.002889798954129219
aF0.07392242550849915
aF0.11369352787733078
aF0.006587334908545017
aF0.003625835757702589
aF0.004032414872199297
aF0.0019165409030392766
aF0.07832744717597961
aF0.004361029714345932
aF0.0032200277782976627
aF0.004382301587611437
aF0.004370322450995445
aF0.005566510371863842
aF0.002748702187091112
aF0.0024912385269999504
aF0.0062400661408901215
aF0.05905535817146301
aF0.0035725515335798264
aF0.004346389789134264
aF0.0033461363054811954
aF0.003073291853070259
aF0.010920827277004719
aF0.005452057812362909
aF0.0035042744129896164
aF0.0011977567337453365
aF0.0568319596350193
aF0.004947772715240717
aF0.0015123120974749327
aF0.0029654863756150007
aF0.0029533375054597855
aF0.0019433391280472279
aF0.003018047893419862
aF0.0043268268927931786
aF0.003187290159985423
aF0.017800388857722282
aF0.002866933820769191
aF0.0059836446307599545
aF0.005907232407480478
aF0.002280216896906495
aF0.002100829966366291
aF0.021014736965298653
aF0.024988818913698196
aF0.048877693712711334
aF0.0010049832053482533
aF0.002288499614223838
aF0.020770885050296783
aF0.001651571597903967
aF0.0015405671438202262
aF0.002019797218963504
aF0.0020339724142104387
aF0.02435797080397606
aF0.0014066644944250584
aF0.05521353706717491
aF0.012053434737026691
aF0.0021276252809911966
aF0.009448530152440071
aF0.0022251277696341276
aF0.0062566157430410385
aF0.004802257753908634
aF0.038551561534404755
aF0.008825458586215973
aF0.05073099583387375
aF0.0028789525385946035
aF0.004947394132614136
aF0.1714605987071991
aF0.0013525682734325528
aF0.00656236382201314
aF0.005158149171620607
aF0.0029549405444413424
aF0.006101909559220076
aF0.014534203335642815
aF0.005653173662722111
aF0.0031654785852879286
aF0.0037657739594578743
aF0.0037006456404924393
aF0.014454931020736694
aF0.003037114627659321
aF0.013414490967988968
aF0.012467054650187492
aF0.0036419022362679243
aF0.0033596274442970753
aF0.003774234326556325
aF0.0034783449955284595
aF0.0024698893539607525
aF0.014216404408216476
aF0.05638223513960838
aF0.017226744443178177
aF0.0025215703062713146
aF0.0956648662686348
aF0.031995054334402084
aF0.003566938918083906
aF0.015795813873410225
aF0.055201057344675064
aF0.0038212372455745935
aF0.012111048214137554
aF0.00802353210747242
aF0.012744336389005184
aF0.0033820411190390587
aF0.0028877942822873592
aF0.012101580388844013
aF0.002712433459237218
aF0.019770942628383636
aF0.0036175420973449945
aF0.002384887309744954
aF0.036345724016427994
aF0.016797097399830818
aF0.0037672098260372877
aF0.002481448231264949
aF0.0009361528791487217
aF0.0026685670018196106
aF0.0011802716180682182
aF0.043511226773262024
aF0.0033230942208319902
aF0.002494765678420663
aF0.003381323302164674
aF0.09235449880361557
aF0.001325854449532926
aF0.001374032348394394
aF0.001836512703448534
aF0.06148865818977356
aF0.0015754690393805504
aF0.001706780749373138
aF0.0064450534991919994
aF0.002874871017411351
aF0.02163451910018921
aF0.002395871328189969
aF0.06555541604757309
aF0.0024296061601489782
aF0.005710068624466658
aF0.02284688502550125
aF0.0019252714700996876
aF0.036195121705532074
aF0.004247782751917839
aF0.001615658518858254
aF0.013501001521945
aF0.00560854421928525
aF0.0023290952667593956
aF0.002914759563282132
aF0.00262068840675056
aF0.0031097435858100653
aF0.0016156577039510012
aF0.0026646803598850965
aF0.0012651546858251095
aF0.05451708287000656
aF0.004930280614644289
aF0.003496806137263775
aF0.01330590806901455
aF0.0028396607376635075
aF0.012626654468476772
aF0.0018171645933762193
aF0.001252528978511691
aF0.010334460996091366
aF0.005759723950177431
aF0.001885466044768691
aF0.004468007944524288
aF0.001971261575818062
aF0.022160165011882782
aF0.0015805315924808383
aF0.0012788178864866495
aF0.002163112862035632
aF0.0012073906837031245
aF0.008093432523310184
aF0.0013252573553472757
aF0.0015543142799288034
aF0.0016983412206172943
aF0.0011231155367568135
aF0.01575351506471634
aF0.0286854300647974
aF0.0009028069907799363
aF0.0011637817369773984
aF0.0010552373714745045
aF0.003262764308601618
aF0.011233450844883919
aF0.0007688304758630693
aF0.0008277036831714213
aF0.001021318486891687
aF0.1217045709490776
aF0.004119763616472483
aF0.0007830124231986701
aF0.002092365873977542
aF0.003136795712634921
aF0.010804311372339725
aF0.015693791210651398
aF0.0011772655416280031
aF0.015479935333132744
aF0.005248155444860458
aF0.0008166893385350704
aF0.001614829059690237
aF0.0012291290331631899
aF0.1408482939004898
aF0.003238941542804241
aF0.030678948387503624
aF0.0030838167294859886
aF0.026738498359918594
aF0.0012434284435585141
aF0.003101031295955181
aF0.0025627294089645147
aF0.007594948168843985
aF0.028559986501932144
aF0.003992186859250069
aF0.0032603906001895666
aF0.0025256099179387093
aF0.002978680422529578
aF0.002213336294516921
aF0.08250422030687332
aF0.0059223356656730175
aF0.007062125951051712
aF0.008571498095989227
aF0.00625254400074482
aF0.006008210591971874
aF0.0033985695336014032
aF0.0059144627302885056
aF0.006769002415239811
aF0.004327005706727505
aF0.003593283938243985
aF0.003890187479555607
aF0.002333330223336816
aF0.0036837661173194647
aF0.02773354761302471
aF0.002804052783176303
a.